ccollections
defaultdict
p1
(cpymarkovchain.MarkovChain
_one_dict
p2
tRp3
(Vat
p4
tp5
g1
(cpymarkovchain.MarkovChain
_one
p6
tRp7
Vleast
p8
F1
ss(Vshitty
p9
Vthread
p10
tp11
g1
(g6
tRp12
S''
F1
ss(Vfinal
p13
tp14
g1
(g6
tRp15
Vperformance
p16
F1
ss(Vis
p17
Vjust
p18
tp19
g1
(g6
tRp20
Va
F1
ss(Vis
p21
Vhovering
p22
tp23
g1
(g6
tRp24
Vover
p25
F1
ss(VI
Vdon't
p26
tp27
g1
(g6
tRp28
Vunderstand
p29
F0.5
sVknow
p30
F0.5
ss(Vboogeyman
p31
tp32
g1
(g6
tRp33
Vparanoia
p34
F1
ss(Vit
p35
tp36
g1
(g6
tRp37
Vadded
p38
F0.125
sVlike
p39
F0.125
sVis
p40
F0.125
sVhasn't
p41
F0.125
sV(I
p42
F0.125
sVin
p43
F0.125
sVby
p44
F0.125
sVlook
p45
F0.125
ss(Vgo
p46
tp47
g1
(g6
tRp48
Vthere
p49
F1
ss(Vending
p50
tp51
g1
(g6
tRp52
S''
F1
ss(Vanti-magic
p53
Vpowers
p54
tp55
g1
(g6
tRp56
S''
F1
ss(Vnow
p57
tp58
g1
(g6
tRp59
S''
F1
ss(Vfag
p60
VI
tp61
g1
(g6
tRp62
Vcan
p63
F1
ss(Vreal
p64
Vromance
p65
tp66
g1
(g6
tRp67
S''
F1
ss(Vthe
p68
Vsequel
p69
tp70
g1
(g6
tRp71
Vclose
p72
F1
ss(VOnly
p73
tp74
g1
(g6
tRp75
Vin
p76
F1
ss(Vyou
p77
Vgoing
p78
tp79
g1
(g6
tRp80
Vto
p81
F1
ss(Vto
p82
g50
tp83
g1
(g6
tRp84
S''
F1
ss(Vstill
p85
Vin
p86
tp87
g1
(g6
tRp88
Vworst
p89
F1
ss(VI'm
p90
tp91
g1
(g6
tRp92
VRaku
p93
F0.25
sVjust
p94
F0.25
sVglad
p95
F0.25
sVmore
p96
F0.25
ss(VLiterally
p97
Vkill
p98
tp99
g1
(g6
tRp100
Vyourselves
p101
F1
ss(Vsister
p102
Vanon
p103
tp104
g1
(g6
tRp105
S''
F1
ss(Vpersonally
p106
tp107
g1
(g6
tRp108
S''
F1
ss(Vis
p109
VKaoru
p110
tp111
g1
(g6
tRp112
Vless
p113
F1
ss(g78
g81
tp114
g1
(g6
tRp115
Vrefute
p116
F1
ss(Vtranslating
p117
Vand
p118
tp119
g1
(g6
tRp120
Vcorporations
p121
F1
ss(Vup
p122
Va
tp123
g1
(g6
tRp124
Vshitpost
p125
F1
ss(VWhen
p126
tp127
g1
(g6
tRp128
Vwe
p129
F1
ss(Veven
p130
Vboys
p131
tp132
g1
(g6
tRp133
Vinto
p134
F1
ss(Vcartoons
p135
tp136
g1
(g6
tRp137
Vincredibly
p138
F1
ss(Vdrunken
p139
tp140
g1
(g6
tRp141
Vbrawl
p142
F1
ss(Vway
p143
tp144
g1
(g6
tRp145
Vbetter
p146
F0.22222222222222221
sVI
F0.22222222222222221
sVbut
p147
F0.22222222222222221
sVin
p148
F0.33333333333333331
ss(Vone
p149
Vslowly
p150
tp151
g1
(g6
tRp152
Vzooming
p153
F1
ss(Vplural
p154
Vis
p155
tp156
g1
(g6
tRp157
V"stories"
p158
F1
ss(Vshow
p159
VThat
p160
tp161
g1
(g6
tRp162
Vfucking
p163
F1
ss(Vwith
p164
Vthis
p165
tp166
g1
(g6
tRp167
Vshit
p168
F1
ss(Vif
p169
tp170
g1
(g6
tRp171
VGundam
p172
F0.16666666666666666
sg35
F0.16666666666666666
sVthey
p173
F0.16666666666666666
sVin
p174
F0.16666666666666666
sVyou
p175
F0.16666666666666666
sVhe
p176
F0.16666666666666666
ss(Vaneki
p177
tp178
g1
(g6
tRp179
Vanyways
p180
F1
ss(Vstupid
p181
Vquestions
p182
tp183
g1
(g6
tRp184
S''
F1
ss(Vguy's
p185
tp186
g1
(g6
tRp187
Vhead
p188
F1
ss(Vthen
p189
Vdied
p190
tp191
g1
(g6
tRp192
Vleaving
p193
F1
ss(Vcolour,
p194
tp195
g1
(g6
tRp196
Vspecially
p197
F1
ss(Vnames
p198
tp199
g1
(g6
tRp200
Vare
p201
F1
ss(Vthey're
p202
tp203
g1
(g6
tRp204
Vjust
p205
F1
ss(Vgenerous
p206
tp207
g1
(g6
tRp208
Vtoday
p209
F1
ss(Vinto
p210
Vrobots
p211
tp212
g1
(g6
tRp213
Vand
p214
F1
ss(Vshowdown
p215
tp216
g1
(g6
tRp217
Vbetween
p218
F1
ss(VReally
p219
tp220
g1
(g6
tRp221
Vlooking
p222
F1
ss(Vrunes,
p223
Vshe's
p224
tp225
g1
(g6
tRp226
Vsmarter
p227
F1
ss(Vbook
p228
Vper
p229
tp230
g1
(g6
tRp231
Vseason
p232
F1
ss(Vhave
p233
Vchanged
p234
tp235
g1
(g6
tRp236
S''
F1
ss(Vface,
p237
Vher
p238
tp239
g1
(g6
tRp240
Vtoenail
p241
F1
ss(g125
Vabout
p242
tp243
g1
(g6
tRp244
V"it's
p245
F1
ss(Vfiction
p246
tp247
g1
(g6
tRp248
Vis
p249
F1
ss(Vsee
p250
Vit
p251
tp252
g1
(g6
tRp253
g43
F1
ss(Vthrown
p254
tp255
g1
(g6
tRp256
g210
F1
ss(Vget
p257
Vthe
p258
tp259
g1
(g6
tRp260
Vfull
p261
F1
ss(g242
g245
tp262
g1
(g6
tRp263
Valready
p264
F1
ss(Vartist
p265
Vreceiving
p266
tp267
g1
(g6
tRp268
Vrecognition
p269
F1
ss(VStop
p270
tp271
g1
(g6
tRp272
Vasking
p273
F1
ss(Vmath
p274
tp275
g1
(g6
tRp276
Vbut
p277
F1
ss(VI'm
p278
g95
tp279
g1
(g6
tRp280
Vfor
p281
F1
ss(Valone
p282
tp283
g1
(g6
tRp284
Vthe
p285
F1
ss(V>>>/reddit/
p286
tp287
g1
(g6
tRp288
S''
F1
ss(Vthe
p289
Vtimes
p290
tp291
g1
(g6
tRp292
g233
F1
ss(g126
g129
tp293
g1
(g6
tRp294
Vwill
p295
F1
ss(g101
tp296
g1
(g6
tRp297
S''
F1
ss(Vthat
p298
Vone
p299
tp300
g1
(g6
tRp301
Vpersistent
p302
F1
ss(Vend,
p303
tp304
g1
(g6
tRp305
Vhe
p306
F1
ss(Vmore
p307
Vabout
p308
tp309
g1
(g6
tRp310
Vit
p311
F1
ss(g311
g42
tp312
g1
(g6
tRp313
Vwas
p314
F1
ss(g281
Vsome
p315
tp316
g1
(g6
tRp317
Vof
p318
F1
ss(g229
tp319
g1
(g6
tRp320
g232
F1
ss(Vevery
p321
Vvolume
p322
tp323
g1
(g6
tRp324
Vbecause
p325
F1
ss(Vin
p326
Vlove
p327
tp328
g1
(g6
tRp329
Vwith
p330
F1
ss(Vthey
p331
tp332
g1
(g6
tRp333
VSymphogear
p334
F0.14285714285714285
sVwould
p335
F0.14285714285714285
sVjust
p336
F0.14285714285714285
sVget
p337
F0.14285714285714285
sVhad
p338
F0.14285714285714285
sVhonestly
p339
F0.14285714285714285
sVwanted
p340
F0.14285714285714285
ss(Vof
p341
Vayy
p342
tp343
g1
(g6
tRp344
Vlmao
p345
F1
ss(Vneo-/a/
p346
tp347
g1
(g6
tRp348
S''
F1
ss(Vthose
p349
Vmoonrunes
p350
tp351
g1
(g6
tRp352
VIf
p353
F1
ss(Vreflection
p354
tp355
g1
(g6
tRp356
Vas
p357
F1
ss(VGot
p358
Vso
p359
tp360
g1
(g6
tRp361
Vfucking
p362
F1
ss(g149
tp363
g1
(g6
tRp364
S''
F0.23076923076923078
sVof
p365
F0.30769230769230771
sg150
F0.15384615384615385
sg302
F0.15384615384615385
sVon
p366
F0.15384615384615385
ss(g222
Vforward
p367
tp368
g1
(g6
tRp369
Vto
p370
F1
ss(Vhate
p371
tp372
g1
(g6
tRp373
Vevery
p374
F1
ss(Vraditz
p375
VThis
p376
tp377
g1
(g6
tRp378
Vis
p379
F1
ss(Vjews
p380
tp381
g1
(g6
tRp382
S''
F1
ss(Vmaster
p383
Vdidnt
p384
tp385
g1
(g6
tRp386
Vget
p387
F1
ss(Videntify
p388
tp389
g1
(g6
tRp390
Van
p391
F1
ss(Vmuch
p392
Vas
p393
tp394
g1
(g6
tRp395
Vi
F1
ss(VLet
p396
g282
tp397
g1
(g6
tRp398
g285
F1
ss(Vand
p399
Vwould
p400
tp401
g1
(g6
tRp402
Vlove
p403
F1
ss(VMomo
p404
tp405
g1
(g6
tRp406
Vrather
p407
F1
ss(Venglish
p408
tp409
g1
(g6
tRp410
Vopening
p411
F1
ss(Vfinished
p412
Vthe
p413
tp414
g1
(g6
tRp415
Vanime
p416
F1
ss(Vtaking
p417
Vcommonly
p418
tp419
g1
(g6
tRp420
Vused
p421
F1
ss(Vtaste
p422
Vthan
p423
tp424
g1
(g6
tRp425
g4
F1
ss(Vshinoa
p426
Vbutt
p427
tp428
g1
(g6
tRp429
VWhat
p430
F1
ss(Von
p431
Vher
p432
tp433
g1
(g6
tRp434
Vand
p435
F1
ss(Vto
p436
V2
tp437
g1
(g6
tRp438
g228
F1
ss(Vwhat
p439
Vthis
p440
tp441
g1
(g6
tRp442
Vguy
p443
F1
ss(g354
g357
tp444
g1
(g6
tRp445
Vif
p446
F1
ss(V19th,
p447
tp448
g1
(g6
tRp449
Vwell
p450
F1
ss(Vgirls,
p451
VAlice
p452
tp453
g1
(g6
tRp454
VAcademy's
p455
F1
ss(Vand
p456
Vtell
p457
tp458
g1
(g6
tRp459
Vme
p460
F1
ss(VIt
Vcan
p461
tp462
g1
(g6
tRp463
Vstill
p464
F1
ss(VAsukafags
p465
tp466
g1
(g6
tRp467
Vare
p468
F1
ss(g407
Vforce
p469
tp470
g1
(g6
tRp471
Vhim
p472
F1
ss(Vheard
p473
Vthat
p474
tp475
g1
(g6
tRp476
Vin
p477
F1
ss(Vweaker
p478
tp479
g1
(g6
tRp480
Vthen
p481
F1
ss(Vhair
p482
tp483
g1
(g6
tRp484
S''
F1
ss(VNext
Vto
p485
tp486
g1
(g6
tRp487
Vdog,
p488
F1
ss(g214
Vforced
p489
tp490
g1
(g6
tRp491
Vto
p492
F1
ss(Vobligations
p493
tp494
g1
(g6
tRp495
S''
F1
ss(Ventire
p496
Vworld
p497
tp498
g1
(g6
tRp499
Von
p500
F1
ss(Vrapist
p501
tp502
g1
(g6
tRp503
Vis
p504
F1
ss(Vnames,
p505
tp506
g1
(g6
tRp507
Vbut
p508
F1
ss(VKurapika
p509
Vand
p510
tp511
g1
(g6
tRp512
Vthe
p513
F1
ss(Valiens
p514
tp515
g1
(g6
tRp516
Vare
p517
F1
ss(Vthe
p518
VNTR
p519
tp520
g1
(g6
tRp521
Vonto
p522
F1
ss(Vyou'll
p523
g250
tp524
g1
(g6
tRp525
g251
F1
ss(Vtitle
p526
tp527
g1
(g6
tRp528
Vwill
p529
F1
ss(Voff
p530
Vif
p531
tp532
g1
(g6
tRp533
g175
F1
ss(VNew
p534
tp535
g1
(g6
tRp536
VFubuki
p537
F1
ss(Vcouldn't
p538
Vunderstand
p539
tp540
g1
(g6
tRp541
g439
F1
ss(Vwho
p542
Vis
p543
tp544
g1
(g6
tRp545
Vexperiencing
p546
F1
ss(Vholding
p547
tp548
g1
(g6
tRp549
Vback,
p550
F1
ss(g322
g325
tp551
g1
(g6
tRp552
Vif
p553
F1
ss(Vowaritumblr
p554
Vthreads
p555
tp556
g1
(g6
tRp557
S''
F1
ss(Vbefore
p558
tp559
g1
(g6
tRp560
Vthe
p561
F0.5
sVhe
p562
F0.5
ss(Vvns
p563
Vwith
p564
tp565
g1
(g6
tRp566
Vdubious
p567
F1
ss(VAny
p568
Videa
p569
tp570
g1
(g6
tRp571
Vif
p572
F1
ss(Vyou
p573
Vhow
p574
tp575
g1
(g6
tRp576
Vlittle
p577
F1
ss(Vfuckers
p578
tp579
g1
(g6
tRp580
S''
F1
ss(Vhave
p581
Vno
p582
tp583
g1
(g6
tRp584
Videa
p585
F1
ss(Vsomething
p586
tp587
g1
(g6
tRp588
Vnew
p589
F0.5
sVAnother
p590
F0.5
ss(VAKB0048
p591
Vright
p592
tp593
g1
(g6
tRp594
S''
F1
ss(Vsingle
p595
Vone
p596
tp597
g1
(g6
tRp598
Vof
p599
F1
ss(Vof
p600
Vthese
p601
tp602
g1
(g6
tRp603
Vdeconstruction
p604
F1
ss(Vare
p605
tp606
g1
(g6
tRp607
Vcrazy
p608
F0.10000000000000001
sV/a/'s
p609
F0.10000000000000001
sVoften
p610
F0.10000000000000001
sVjust
p611
F0.10000000000000001
sVsome
p612
F0.10000000000000001
sVthree
p613
F0.10000000000000001
sVthey
p614
F0.10000000000000001
sg77
F0.10000000000000001
sVneither
p615
F0.10000000000000001
sVtechnically
p616
F0.10000000000000001
ss(Veye
p617
tp618
g1
(g6
tRp619
Vtriggers
p620
F1
ss(VMan
p621
tp622
g1
(g6
tRp623
g21
F0.5
sVcan
p624
F0.5
ss(g514
g517
tp625
g1
(g6
tRp626
g612
F1
ss(VLiterally,
p627
tp628
g1
(g6
tRp629
Vone
p630
F1
ss(Va
Vparticularly
p631
tp632
g1
(g6
tRp633
Vmemorable
p634
F1
ss(Vreiterate,
p635
g278
tp636
g1
(g6
tRp637
g95
F1
ss(Vbeen
p638
Vshot
p639
tp640
g1
(g6
tRp641
Vor
p642
F1
ss(VEven
p643
Vwhen
p644
tp645
g1
(g6
tRp646
Vhe
p647
F1
ss(Vleads
p648
tp649
g1
(g6
tRp650
Vto
p651
F1
ss(Vthat's
p652
Vhalf
p653
tp654
g1
(g6
tRp655
Vthe
p656
F1
ss(Vcreepy
p657
tp658
g1
(g6
tRp659
g501
F1
ss(Vis
p660
V/a/
p661
tp662
g1
(g6
tRp663
Vculture
p664
F1
ss(Vnein,
p665
Vin
p666
tp667
g1
(g6
tRp668
Vtheir
p669
F1
ss(Vbeing
p670
tp671
g1
(g6
tRp672
Vthat
p673
F1
ss(Vsaid
p674
tp675
g1
(g6
tRp676
Vabout
p677
F0.5
sVthat
p678
F0.5
ss(Vactual
p679
VAOTY
p680
tp681
g1
(g6
tRp682
S''
F1
ss(g567
Vtranslations,
p683
tp684
g1
(g6
tRp685
Vhuge
p686
F1
ss(g65
tp687
g1
(g6
tRp688
S''
F1
ss(Vanything
p689
tp690
g1
(g6
tRp691
Vto
p692
F0.33333333333333331
sg674
F0.33333333333333331
sVanybody
p693
F0.33333333333333331
ss(VATM
p694
Vbut
p695
tp696
g1
(g6
tRp697
Vthe
p698
F1
ss(V/thread
p699
tp700
g1
(g6
tRp701
V7447
p702
F1
ss(Vsimilar
p703
Vto
p704
tp705
g1
(g6
tRp706
Vthis
p707
F1
ss(VAsuka
p708
tp709
g1
(g6
tRp710
S''
F1
ss(VTHANK
p711
VJESUS
p712
tp713
g1
(g6
tRp714
VProbably
p715
F1
ss(Vyou
p716
Vadvocate
p717
tp718
g1
(g6
tRp719
Vanki
p720
F1
ss(Vthat
p721
tp722
g1
(g6
tRp723
Vhe
p724
F0.0625
sVcan
p725
F0.0625
sVfar
p726
F0.0625
sVFuck
p727
F0.0625
sVbut
p728
F0.0625
sg299
F0.0625
sVCerea
p729
F0.0625
sg185
F0.0625
sg404
F0.0625
sVHanged
p730
F0.0625
sVthey
p731
F0.0625
sg477
F0.0625
sVclose
p732
F0.0625
sg169
F0.0625
sVwas
p733
F0.0625
sVreally
p734
F0.0625
ss(Vwrong
p735
tp736
g1
(g6
tRp737
S''
F1
ss(g321
tp738
g1
(g6
tRp739
g322
F0.5
sg595
F0.5
ss(g686
Vrelease
p740
tp741
g1
(g6
tRp742
Vdelays
p743
F1
ss(Vkek
p744
VIn
p745
tp746
g1
(g6
tRp747
Vother
p748
F1
ss(Vread
p749
VOumagadoki
p750
tp751
g1
(g6
tRp752
g143
F1
ss(g103
tp753
g1
(g6
tRp754
S''
F1
ss(Va
VRan-style
p755
tp756
g1
(g6
tRp757
Vdrunk,
p758
F1
ss(Vexclusive
p759
tp760
g1
(g6
tRp761
Vart
p762
F1
ss(VI
g538
tp763
g1
(g6
tRp764
Vask
p765
F0.5
sg539
F0.5
ss(g60
tp766
g1
(g6
tRp767
VI
F1
ss(VHibike
p768
Vand
p769
tp770
g1
(g6
tRp771
VNNB
p772
F1
ss(g146
Vmanga
p773
tp774
g1
(g6
tRp775
S''
F1
ss(Vhandle
p776
tp777
g1
(g6
tRp778
VJapanese
p779
F1
ss(Vgive
p780
tp781
g1
(g6
tRp782
Vup
p783
F1
ss(Vensues
p784
tp785
g1
(g6
tRp786
Vas
p787
F1
ss(Vyou
p788
Vgonna
p789
tp790
g1
(g6
tRp791
Vtell
p792
F1
ss(Vas
p793
Vthey
p794
tp795
g1
(g6
tRp796
g335
F1
ss(Vas
p797
Vwell
p798
tp799
g1
(g6
tRp800
S''
F1
ss(VKaworu
p801
Vinteract
p802
tp803
g1
(g6
tRp804
Vwith
p805
F1
ss(g759
g762
tp806
g1
(g6
tRp807
Vthere
p808
F1
ss(Vginga
p809
Vbishounen
p810
tp811
g1
(g6
tRp812
Vforever
p813
F1
ss(Vdrag
p814
tp815
g1
(g6
tRp816
Vqueens
p817
F1
ss(Vthat
p818
g733
tp819
g1
(g6
tRp820
Va
F1
ss(VSup
p821
V/a/,
p822
tp823
g1
(g6
tRp824
Vso,
p825
F1
ss(Varchfiend
p826
tp827
g1
(g6
tRp828
Vcard
p829
F1
ss(Vdon't
p830
Vfuck
p831
tp832
g1
(g6
tRp833
Vyour
p834
F1
ss(g282
g285
tp835
g1
(g6
tRp836
Vspinoffs
p837
F1
ss(Vwith
p838
Vblack
p839
tp840
g1
(g6
tRp841
g482
F1
ss(Vhe
p842
Vstrike
p843
tp844
g1
(g6
tRp845
g122
F1
ss(Vchemicals
p846
tp847
g1
(g6
tRp848
g431
F1
ss(g789
g792
tp849
g1
(g6
tRp850
VAxe
p851
F1
ss(Vlittle
p852
Vtired
p853
tp854
g1
(g6
tRp855
Vmeme
p856
F1
ss(g180
tp857
g1
(g6
tRp858
VWhy
p859
F1
ss(Vlogically
p860
tp861
g1
(g6
tRp862
Vlead
p863
F1
ss(Vdepositing
p864
Va
tp865
g1
(g6
tRp866
Vcheck
p867
F1
ss(g169
g35
tp868
g1
(g6
tRp869
g38
F1
ss(Vfor
p870
tp871
g1
(g6
tRp872
Vme
p873
F0.16666666666666666
sVa
F0.16666666666666666
sVthem
p874
F0.16666666666666666
sVpixiv
p875
F0.16666666666666666
sVtwitter
p876
F0.16666666666666666
sg315
F0.16666666666666666
ss(VOH
p877
tp878
g1
(g6
tRp879
g711
F1
ss(g748
tp880
g1
(g6
tRp881
S''
F0.20000000000000001
sVwords,
p882
F0.20000000000000001
sVgirls
p883
F0.20000000000000001
sVday
p884
F0.20000000000000001
sVcharacters
p885
F0.20000000000000001
ss(VDRAMA
p886
g784
tp887
g1
(g6
tRp888
g787
F1
ss(Vagain,
p889
g298
tp890
g1
(g6
tRp891
g299
F1
ss(g590
tp892
g1
(g6
tRp893
Vquality
p894
F1
ss(Vthe
p895
g496
tp896
g1
(g6
tRp897
g497
F1
ss(Vharem
p898
tp899
g1
(g6
tRp900
S''
F1
ss(Vcan't
p901
Vread
p902
tp903
g1
(g6
tRp904
Vthe
p905
F1
ss(VAladdin
p906
Vcan
p907
tp908
g1
(g6
tRp909
Vliterally
p910
F1
ss(Vforever
p911
Vis
p912
tp913
g1
(g6
tRp914
Vthere
p915
F1
ss(Vback
p916
Vto
p917
tp918
g1
(g6
tRp919
Vyour
p920
F1
ss(g699
g702
tp921
g1
(g6
tRp922
V+1
p923
F1
ss(g25
Vhim
p924
tp925
g1
(g6
tRp926
Vin
p927
F1
ss(g31
g34
tp928
g1
(g6
tRp929
Vworks
p930
F1
ss(VFuck
Vyou
p931
tp932
g1
(g6
tRp933
Vthere
p934
F1
ss(g652
tp935
g1
(g6
tRp936
Vhow
p937
F0.33333333333333331
sVwhat
p938
F0.33333333333333331
sg653
F0.33333333333333331
ss(VYes,
p939
Vthat's
p940
tp941
g1
(g6
tRp942
g938
F1
ss(VI
Vthink
p943
tp944
g1
(g6
tRp945
Vthat
p946
F1
ss(Vwas
p947
Vmurderred
p948
tp949
g1
(g6
tRp950
Vbefore
p951
F1
ss(g150
g153
tp952
g1
(g6
tRp953
Vin
p954
F1
ss(g160
tp955
g1
(g6
tRp956
g163
F1
ss(g643
tp957
g1
(g6
tRp958
g644
F1
ss(Vevil,
p959
tp960
g1
(g6
tRp961
Vhe
p962
F1
ss(g639
tp963
g1
(g6
tRp964
g642
F1
ss(Vto
p965
Vhave
p966
tp967
g1
(g6
tRp968
Vone
p969
F1
ss(VBut
p970
Vshe
p971
tp972
g1
(g6
tRp973
Vdid
p974
F1
ss(Vthe
p975
g265
tp976
g1
(g6
tRp977
g266
F1
ss(VIt's
p978
Vnot
p979
tp980
g1
(g6
tRp981
Veven
p982
F1
ss(VIt
p983
Vlooks
p984
tp985
g1
(g6
tRp986
Vlike
p987
F1
ss(Vlink
p988
tp989
g1
(g6
tRp990
Vto
p991
F1
ss(g238
g241
tp992
g1
(g6
tRp993
g670
F1
ss(g522
tp994
g1
(g6
tRp995
Vumaru
p996
F1
ss(g261
tp997
g1
(g6
tRp998
Vversion
p999
F1
ss(g387
Vthat
p1000
tp1001
g1
(g6
tRp1002
g726
F1
ss(Vlooks
p1003
Vlike
p1004
tp1005
g1
(g6
tRp1006
g939
F0.5
sVVHS
p1007
F0.5
ss(Vthe
p1008
Vpoint
p1009
tp1010
g1
(g6
tRp1011
Vof
p1012
F1
ss(Vfestivities
p1013
tp1014
g1
(g6
tRp1015
S''
F1
ss(Vtsundere
p1016
tp1017
g1
(g6
tRp1018
Vso
p1019
F1
ss(Vby
p1020
Vthe
p1021
tp1022
g1
(g6
tRp1023
Vghosts
p1024
F1
ss(g64
tp1025
g1
(g6
tRp1026
g65
F1
ss(VWhy'd
p1027
tp1028
g1
(g6
tRp1029
Vhe
p1030
F1
ss(Vi
tp1031
g1
(g6
tRp1032
Vlove
p1033
F0.5
sg581
F0.5
ss(Vthe
p1034
Vnight
p1035
tp1036
g1
(g6
tRp1037
Vbefore,
p1038
F1
ss(Vhelp
p1039
tp1040
g1
(g6
tRp1041
Vme
p1042
F1
ss(g49
tp1043
g1
(g6
tRp1044
S''
F0.1875
sVchances
p1045
F0.125
sVis
p1046
F0.125
sVare
p1047
F0.125
sVfirst
p1048
F0.1875
sVany
p1049
F0.125
sVotherwise
p1050
F0.125
ss(Vthis
p1051
g159
tp1052
g1
(g6
tRp1053
g160
F1
ss(g224
tp1054
g1
(g6
tRp1055
g227
F1
ss(Vthat
p1056
g727
tp1057
g1
(g6
tRp1058
Voff,
p1059
F1
ss(g1046
Vno
p1060
tp1061
g1
(g6
tRp1062
Vgood
p1063
F1
ss(VDon't
p1064
Vworry,
p1065
tp1066
g1
(g6
tRp1067
Vit's
p1068
F1
ss(Vslice-of-life
p1069
Vrom-com
p1070
tp1071
g1
(g6
tRp1072
S''
F1
ss(Vbronco
p1073
Vmask
p1074
tp1075
g1
(g6
tRp1076
Vand
p1077
F1
ss(Vthat's
p1078
g937
tp1079
g1
(g6
tRp1080
g31
F1
ss(Vequilibrium
p1081
Vbetween
p1082
tp1083
g1
(g6
tRp1084
g975
F1
ss(Vwith
p1085
g895
tp1086
g1
(g6
tRp1087
g496
F1
ss(Vstupid
p1088
tp1089
g1
(g6
tRp1090
g852
F0.5
sg182
F0.5
ss(g730
tp1091
g1
(g6
tRp1092
g621
F1
ss(Vscene
p1093
Vin
p1094
tp1095
g1
(g6
tRp1096
Vthe
p1097
F1
ss(g35
g38
tp1098
g1
(g6
tRp1099
Vthe
p1100
F1
ss(g121
Vmaking
p1101
tp1102
g1
(g6
tRp1103
Vprofit
p1104
F1
ss(Vstill
p1105
Vdon't
p1106
tp1107
g1
(g6
tRp1108
Vunderstand
p1109
F1
ss(Vfuture
p1110
Vseasons
p1111
tp1112
g1
(g6
tRp1113
Vwill
p1114
F1
ss(Vnormal
p1115
tp1116
g1
(g6
tRp1117
Vteenager
p1118
F1
ss(Vreading
p1119
tp1120
g1
(g6
tRp1121
Vand
p1122
F1
ss(VAyatsuji
p1123
tp1124
g1
(g6
tRp1125
S''
F1
ss(Va
g125
tp1126
g1
(g6
tRp1127
g242
F1
ss(Vwithin
p1128
tp1129
g1
(g6
tRp1130
Vthe
p1131
F0.5
sg246
F0.5
ss(g452
g455
tp1132
g1
(g6
tRp1133
Vprotag
p1134
F1
ss(V"storys
p1135
tp1136
g1
(g6
tRp1137
S''
F1
ss(Vfuck
p1138
tp1139
g1
(g6
tRp1140
Vdo
p1141
F0.33333333333333331
sVup
p1142
F0.33333333333333331
sg834
F0.33333333333333331
ss(Va
g867
tp1143
g1
(g6
tRp1144
Vinto
p1145
F1
ss(Vit's
p1146
Vsome
p1147
tp1148
g1
(g6
tRp1149
Vretardedly
p1150
F1
ss(Vwhim,
p1151
tp1152
g1
(g6
tRp1153
Vyet
p1154
F1
ss(Vcontext
p1155
tp1156
g1
(g6
tRp1157
Vof
p1158
F1
ss(Vdesigns
p1159
tp1160
g1
(g6
tRp1161
Vchanges,
p1162
F1
ss(Vwhen
p1163
Vsome
p1164
tp1165
g1
(g6
tRp1166
Vautistic
p1167
F1
ss(g744
tp1168
g1
(g6
tRp1169
g745
F1
ss(g215
g218
tp1170
g1
(g6
tRp1171
g509
F1
ss(Vproved,
p1172
tp1173
g1
(g6
tRp1174
Vyet
p1175
F1
ss(Vwhat
p1176
Vyou
p1177
tp1178
g1
(g6
tRp1179
Vguys
p1180
F0.5
sVwould
p1181
F0.5
ss(g656
Vfun
p1182
tp1183
g1
(g6
tRp1184
Vgone
p1185
F1
ss(Vdick
p1186
Vis
p1187
tp1188
g1
(g6
tRp1189
Vpleased
p1190
F1
ss(VHijinks
p1191
Vensue
p1192
tp1193
g1
(g6
tRp1194
Vas
p1195
F1
ss(VBorN,
p1196
tp1197
g1
(g6
tRp1198
Vbut
p1199
F1
ss(Vthread,
p1200
Vbest
p1201
tp1202
g1
(g6
tRp1203
Vside
p1204
F1
ss(VWhy
p1205
Vcan't
p1206
tp1207
g1
(g6
tRp1208
Vpeople
p1209
F1
ss(VCheck
p1210
tp1211
g1
(g6
tRp1212
Vtheir
p1213
F1
ss(g302
Vshitposter
p1214
tp1215
g1
(g6
tRp1216
Vis
p1217
F1
ss(Vdancing
p1218
tp1219
g1
(g6
tRp1220
Vhere
p1221
F1
ss(Vstarted
p1222
g1119
tp1223
g1
(g6
tRp1224
g1122
F1
ss(VI
g1105
tp1225
g1
(g6
tRp1226
g1106
F1
ss(Vhell
p1227
tp1228
g1
(g6
tRp1229
VI
F0.33333333333333331
sVMacross
p1230
F0.33333333333333331
sg109
F0.33333333333333331
ss(VI
Vneed
p1231
tp1232
g1
(g6
tRp1233
Vto
p1234
F1
ss(g1122
VUmaru
p1235
tp1236
g1
(g6
tRp1237
Vis
p1238
F1
ss(Vcombined
p1239
g838
tp1240
g1
(g6
tRp1241
g839
F1
ss(Vsuper
p1242
Vcreative
p1243
tp1244
g1
(g6
tRp1245
Vand
p1246
F1
ss(Vmy
p1247
Vhead
p1248
tp1249
g1
(g6
tRp1250
S''
F1
ss(VYeah,
p1251
tp1252
g1
(g6
tRp1253
g652
F1
ss(g388
g391
tp1254
g1
(g6
tRp1255
Vanime
p1256
F1
ss(g702
g923
tp1257
g1
(g6
tRp1258
VIn
p1259
F1
ss(Vhas
p1260
tp1261
g1
(g6
tRp1262
g1073
F0.5
sVspecial
p1263
F0.5
ss(Vpulled
p1264
tp1265
g1
(g6
tRp1266
Vthis
p1267
F1
ss(g455
tp1268
g1
(g6
tRp1269
g1134
F1
ss(Vcontinue
p1270
Vto
p1271
tp1272
g1
(g6
tRp1273
Vmake
p1274
F1
ss(Vmoney
p1275
tp1276
g1
(g6
tRp1277
S''
F1
ss(Vtheir
p1278
Vshoulders
p1279
tp1280
g1
(g6
tRp1281
Vwould
p1282
F1
ss(Vwoman
p1283
Vwith
p1284
tp1285
g1
(g6
tRp1286
Vtwo
p1287
F1
ss(VYTSdmWfY
p1288
tp1289
g1
(g6
tRp1290
VHow
p1291
F1
ss(Vtranslations
p1292
tp1293
g1
(g6
tRp1294
S''
F0.5
sVfan
p1295
F0.5
ss(VCell,
p1296
Vthe
p1297
tp1298
g1
(g6
tRp1299
Vperfect
p1300
F1
ss(Vsaying
p1301
tp1302
g1
(g6
tRp1303
S''
F1
ss(Vkilled
p1304
tp1305
g1
(g6
tRp1306
S''
F0.5
sg1020
F0.5
ss(Vbara
p1307
VI
tp1308
g1
(g6
tRp1309
g26
F1
ss(g592
tp1310
g1
(g6
tRp1311
S''
F1
ss(VRitz
p1312
tp1313
g1
(g6
tRp1314
Vlooks
p1315
F1
ss(g234
tp1316
g1
(g6
tRp1317
S''
F1
ss(Vbeen
p1318
Vdumping
p1319
tp1320
g1
(g6
tRp1321
g846
F1
ss(g69
g72
tp1322
g1
(g6
tRp1323
g82
F1
ss(Vchapter
p1324
tp1325
g1
(g6
tRp1326
Vhas
p1327
F1
ss(g1134
g1260
tp1328
g1
(g6
tRp1329
g1263
F1
ss(V20k
p1330
Vwith
p1331
tp1332
g1
(g6
tRp1333
Va
F1
ss(Vformat
p1334
tp1335
g1
(g6
tRp1336
S''
F1
ss(Vsome
p1337
tp1338
g1
(g6
tRp1339
g1150
F0.14285714285714285
sg759
F0.14285714285714285
sVkind
p1340
F0.21428571428571427
sg1167
F0.14285714285714285
sg318
F0.21428571428571427
sVrobot
p1341
F0.14285714285714285
ss(g452
tp1342
g1
(g6
tRp1343
g455
F1
ss(g749
tp1344
g1
(g6
tRp1345
Vthe
p1346
F0.59999999999999998
sg750
F0.40000000000000002
ss(Vwatched
p1347
tp1348
g1
(g6
tRp1349
S''
F1
ss(Va
Vwhole
p1350
tp1351
g1
(g6
tRp1352
Vlot
p1353
F1
ss(g923
g1259
tp1354
g1
(g6
tRp1355
Vthis
p1356
F1
ss(g769
tp1357
g1
(g6
tRp1358
Vburning
p1359
F0.031746031746031744
sVloads
p1360
F0.031746031746031744
sVhave
p1361
F0.047619047619047616
sg121
F0.031746031746031744
sVeven
p1362
F0.031746031746031744
sVadding
p1363
F0.031746031746031744
sVdeath
p1364
F0.031746031746031744
sg400
F0.031746031746031744
sVquestion
p1365
F0.031746031746031744
sg772
F0.031746031746031744
sg1222
F0.031746031746031744
sVexpected
p1366
F0.031746031746031744
sg457
F0.031746031746031744
sVthen
p1367
F0.031746031746031744
sVselling
p1368
F0.031746031746031744
sVposting
p1369
F0.031746031746031744
sg489
F0.031746031746031744
sVI
F0.047619047619047616
sVfunds,
p1370
F0.031746031746031744
sVconsequence
p1371
F0.031746031746031744
sg563
F0.031746031746031744
sg1235
F0.031746031746031744
sVcome
p1372
F0.031746031746031744
sVwhy
p1373
F0.031746031746031744
sVa
F0.031746031746031744
sVdaughter
p1374
F0.031746031746031744
sVtaking
p1375
F0.031746031746031744
sVHanged
p1376
F0.031746031746031744
sVfun
p1377
F0.031746031746031744
sg513
F0.047619047619047616
ss(Vbe
p1378
g1008
tp1379
g1
(g6
tRp1380
g1009
F1
ss(Vscanned
p1381
tp1382
g1
(g6
tRp1383
S''
F1
ss(Vhis
p1384
g1151
tp1385
g1
(g6
tRp1386
g1154
F1
ss(g1359
tp1387
g1
(g6
tRp1388
Vher
p1389
F1
ss(g451
tp1390
g1
(g6
tRp1391
g452
F1
ss(g1274
Vnon-specific
p1392
tp1393
g1
(g6
tRp1394
Vcomplaints
p1395
F1
ss(Vhis
p1396
Vwife
p1397
tp1398
g1
(g6
tRp1399
Vand
p1400
F1
ss(VFuck
p1401
tp1402
g1
(g6
tRp1403
Vit,
p1404
F0.25
sg530
F0.25
sg1059
F0.25
sg931
F0.25
ss(Vthe
p1405
VAmagami
p1406
tp1407
g1
(g6
tRp1408
Vguy
p1409
F1
ss(Vthe
p1410
g1227
tp1411
g1
(g6
tRp1412
VI
F0.5
sg109
F0.5
ss(g54
tp1413
g1
(g6
tRp1414
S''
F1
ss(Vsome
p1415
g1341
tp1416
g1
(g6
tRp1417
Vanime
p1418
F1
ss(VSUBTLETY
p1419
tp1420
g1
(g6
tRp1421
S''
F1
ss(g784
g787
tp1422
g1
(g6
tRp1423
Vhe
p1424
F1
ss(Vand
p1425
g1222
tp1426
g1
(g6
tRp1427
g1119
F1
ss(VJust
p1428
Vlike
p1429
tp1430
g1
(g6
tRp1431
g591
F1
ss(Voff
p1432
Vthat
p1433
tp1434
g1
(g6
tRp1435
g185
F1
ss(g996
Vand
p1436
tp1437
g1
(g6
tRp1438
g1367
F1
ss(Vfine
p1439
tp1440
g1
(g6
tRp1441
Vand
p1442
F1
ss(g334
tp1443
g1
(g6
tRp1444
Vthe
p1445
F1
ss(Vgotten
p1446
Vinto
p1447
tp1448
g1
(g6
tRp1449
Va
F1
ss(g1375
tp1450
g1
(g6
tRp1451
g418
F0.5
sVout
p1452
F0.5
ss(Vmental
p1453
tp1454
g1
(g6
tRp1455
Vissues
p1456
F1
ss(Vto
Vlick
p1457
tp1458
g1
(g6
tRp1459
Va
F1
ss(g765
Vabout
p1460
tp1461
g1
(g6
tRp1462
Vit)
p1463
F1
ss(Vhave
p1464
Vher
p1465
tp1466
g1
(g6
tRp1467
Vbe
p1468
F1
ss(g1009
tp1469
g1
(g6
tRp1470
g1012
F1
ss(g408
g411
tp1471
g1
(g6
tRp1472
Vis
p1473
F1
ss(Vnot
p1474
Vshojo
p1475
tp1476
g1
(g6
tRp1477
S''
F1
ss(VPost
p1478
Vthe
p1479
tp1480
g1
(g6
tRp1481
g149
F1
ss(VKumiko
p1482
Vlooks
p1483
tp1484
g1
(g6
tRp1485
Vcute
p1486
F1
ss(VBased
p1487
VMorizoh
p1488
tp1489
g1
(g6
tRp1490
VI
F1
ss(Vlittle
Vgirls
p1491
tp1492
g1
(g6
tRp1493
Vfighting
p1494
F0.5
sVgetting
p1495
F0.5
ss(Vrealistic
p1496
tp1497
g1
(g6
tRp1498
Vlogic
p1499
F1
ss(g948
g951
tp1500
g1
(g6
tRp1501
g562
F1
ss(VDeconstruction
p1502
tp1503
g1
(g6
tRp1504
Vwithin
p1505
F1
ss(Vpeople
p1506
Vthink
p1507
tp1508
g1
(g6
tRp1509
VAlibaba
p1510
F1
ss(Vfew
p1511
Vof
p1512
tp1513
g1
(g6
tRp1514
Vthe
p1515
F1
ss(Vikr
p1516
tp1517
g1
(g6
tRp1518
VD:
p1519
F1
ss(Vinages
p1520
tp1521
g1
(g6
tRp1522
S''
F1
ss(Vagainst
p1523
tp1524
g1
(g6
tRp1525
VBoros
p1526
F1
ss(g802
tp1527
g1
(g6
tRp1528
g805
F1
ss(Vstill
p1529
Vstuck
p1530
tp1531
g1
(g6
tRp1532
Vin
p1533
F1
ss(g176
Vwere
p1534
tp1535
g1
(g6
tRp1536
Vthere
p1537
F1
ss(VNo,
p1538
Vit's
p1539
tp1540
g1
(g6
tRp1541
g1069
F1
ss(Vplaying
p1542
Vthe
p1543
tp1544
g1
(g6
tRp1545
Vother
p1546
F1
ss(Vsee
p1547
g801
tp1548
g1
(g6
tRp1549
g802
F1
ss(g704
g707
tp1550
g1
(g6
tRp1551
Vone
p1552
F1
ss(Vthose
p1553
Vtwo,
p1554
tp1555
g1
(g6
tRp1556
g1405
F1
ss(Vhorrible
p1557
VAnd
p1558
tp1559
g1
(g6
tRp1560
g202
F1
ss(g1155
g1158
tp1561
g1
(g6
tRp1562
g1051
F1
ss(Vis
p1563
Vmale
p1564
tp1565
g1
(g6
tRp1566
g1016
F1
ss(VMegruin's
p1567
Vface
p1568
tp1569
g1
(g6
tRp1570
S''
F1
ss(g1362
g708
tp1571
g1
(g6
tRp1572
S''
F1
ss(Vgod
p1573
g818
tp1574
g1
(g6
tRp1575
g733
F1
ss(Vfuck
p1576
g1141
tp1577
g1
(g6
tRp1578
Vyou
p1579
F1
ss(Va
g139
tp1580
g1
(g6
tRp1581
g142
F1
ss(g1019
Vgood
p1582
tp1583
g1
(g6
tRp1584
S''
F1
ss(Vshut
p1585
tp1586
g1
(g6
tRp1587
Vthe
p1588
F1
ss(g153
tp1589
g1
(g6
tRp1590
g954
F1
ss(VOr
p1591
Vis
p1592
tp1593
g1
(g6
tRp1594
Vthere
p1595
F1
ss(g889
tp1596
g1
(g6
tRp1597
g298
F1
ss(Vwe
p1598
Vcan
p1599
tp1600
g1
(g6
tRp1601
Vcomplement
p1602
F1
ss(g1004
g939
tp1603
g1
(g6
tRp1604
g940
F1
ss(g674
g677
tp1605
g1
(g6
tRp1606
Vthe
p1607
F1
ss(g185
g188
tp1608
g1
(g6
tRp1609
Vmakes
p1610
F1
ss(g1465
g1468
tp1611
g1
(g6
tRp1612
Vinvolved
p1613
F1
ss(g673
g732
tp1614
g1
(g6
tRp1615
Vto
p1616
F1
ss(Vmistake
p1617
tp1618
g1
(g6
tRp1619
Vbecause
p1620
F1
ss(g1063
Vor
p1621
tp1622
g1
(g6
tRp1623
g959
F1
ss(g501
g504
tp1624
g1
(g6
tRp1625
Vdefinitely
p1626
F1
ss(VIt's
p1627
Vlike
p1628
tp1629
g1
(g6
tRp1630
g864
F1
ss(g342
tp1631
g1
(g6
tRp1632
g345
F1
ss(g400
g403
tp1633
g1
(g6
tRp1634
g965
F1
ss(VFuck
g1404
tp1635
g1
(g6
tRp1636
g809
F1
ss(VC89
p1637
tp1638
g1
(g6
tRp1639
Vbook
p1640
F1
ss(g450
g558
tp1641
g1
(g6
tRp1642
g561
F1
ss(g1406
tp1643
g1
(g6
tRp1644
g1409
F1
ss(g1182
tp1645
g1
(g6
tRp1646
g1185
F0.5
sVto
p1647
F0.5
ss(Vstill
p1648
Virrelevant
p1649
tp1650
g1
(g6
tRp1651
S''
F1
ss(Vlewd
p1652
Vin
p1653
tp1654
g1
(g6
tRp1655
Va
F1
ss(g1502
g1505
tp1656
g1
(g6
tRp1657
g246
F1
ss(g1360
tp1658
g1
(g6
tRp1659
Vof
p1660
F1
ss(Vof
p1661
Vthis
p1662
tp1663
g1
(g6
tRp1664
Vand
p1665
F0.5
sg159
F0.5
ss(Vreverse
p1666
tp1667
g1
(g6
tRp1668
Vimage
p1669
F1
ss(g138
tp1670
g1
(g6
tRp1671
Vsexy
p1672
F1
ss(Vmine
p1673
tp1674
g1
(g6
tRp1675
S''
F1
ss(Vcool
p1676
tp1677
g1
(g6
tRp1678
Vand
p1679
F1
ss(g1579
Vknow
p1680
tp1681
g1
(g6
tRp1682
Vwhat
p1683
F1
ss(g465
g468
tp1684
g1
(g6
tRp1685
g608
F1
ss(Vwold
p1686
tp1687
g1
(g6
tRp1688
g1378
F1
ss(g894
tp1689
g1
(g6
tRp1690
Vthread
p1691
F1
ss(VHope
p1692
tp1693
g1
(g6
tRp1694
Vso
p1695
F1
ss(Vcomes
p1696
tp1697
g1
(g6
tRp1698
Varound
p1699
F1
ss(g517
g612
tp1700
g1
(g6
tRp1701
g1340
F1
ss(g683
g686
tp1702
g1
(g6
tRp1703
g740
F1
ss(VAt
p1704
Vleast
p1705
tp1706
g1
(g6
tRp1707
Vhe's
p1708
F1
ss(g505
g508
tp1709
g1
(g6
tRp1710
VKorean
p1711
F1
ss(g173
g338
tp1712
g1
(g6
tRp1713
g1446
F1
ss(g987
g1007
tp1714
g1
(g6
tRp1715
Vhonestly
p1716
F1
ss(Vmachine
p1717
tp1718
g1
(g6
tRp1719
Vdoesn't
p1720
F1
ss(Vlost
p1721
g1673
tp1722
g1
(g6
tRp1723
S''
F1
ss(Vyou
p1724
g1181
tp1725
g1
(g6
tRp1726
Vhave
p1727
F1
ss(VThanks
p1728
tp1729
g1
(g6
tRp1730
S''
F1
ss(Vretarded
p1731
tp1732
g1
(g6
tRp1733
Vpremises,
p1734
F1
ss(VF/SN
p1735
tp1736
g1
(g6
tRp1737
S''
F1
ss(Vmanglobe,
p1738
Vrip
p1739
tp1740
g1
(g6
tRp1741
Vthis
p1742
F1
ss(Venough
p1743
Vto
p1744
tp1745
g1
(g6
tRp1746
Vruin
p1747
F1
ss(Vjosei,
p1748
tp1749
g1
(g6
tRp1750
g1474
F1
ss(Vof
p1751
Vthem
p1752
tp1753
g1
(g6
tRp1754
Vjust
p1755
F1
ss(g39
g1056
tp1756
g1
(g6
tRp1757
g727
F1
ss(Vbook
p1758
Vas
p1759
tp1760
g1
(g6
tRp1761
Vwell
p1762
F1
ss(g1734
tp1763
g1
(g6
tRp1764
g886
F1
ss(Vto
p1765
Vfall
p1766
tp1767
g1
(g6
tRp1768
g326
F1
ss(VHey
p1769
tp1770
g1
(g6
tRp1771
V/a/,
p1772
F1
ss(g339
tp1773
g1
(g6
tRp1774
S''
F0.5
sVdont
p1775
F0.5
ss(Vmy
p1776
Vgame
p1777
tp1778
g1
(g6
tRp1779
S''
F1
ss(g299
g302
tp1780
g1
(g6
tRp1781
g1214
F1
ss(g1772
Vcan
p1782
tp1783
g1
(g6
tRp1784
Vyou
p1785
F1
ss(Vdefinitely
p1786
Vreturn
p1787
tp1788
g1
(g6
tRp1789
g436
F1
ss(g1775
tp1790
g1
(g6
tRp1791
Vseem
p1792
F1
ss(g1186
tp1793
g1
(g6
tRp1794
S''
F0.5
sg1187
F0.5
ss(g1468
g1613
tp1795
g1
(g6
tRp1796
S''
F1
ss(g1366
tp1797
g1
(g6
tRp1798
S''
F1
ss(Vyourself
p1799
tp1800
g1
(g6
tRp1801
S''
F1
ss(Vabsolutely
p1802
tp1803
g1
(g6
tRp1804
Vanything
p1805
F1
ss(g538
tp1806
g1
(g6
tRp1807
g765
F0.33333333333333331
sVsell
p1808
F0.33333333333333331
sg539
F0.33333333333333331
ss(g489
tp1809
g1
(g6
tRp1810
g492
F1
ss(g851
tp1811
g1
(g6
tRp1812
Vof
p1813
F1
ss(g1340
tp1814
g1
(g6
tRp1815
g341
F1
ss(g773
tp1816
g1
(g6
tRp1817
S''
F0.5
sVis
p1818
F0.5
ss(g422
tp1819
g1
(g6
tRp1820
g423
F1
ss(Vhave
Vbetter
p1821
tp1822
g1
(g6
tRp1823
g422
F1
ss(Vthe
p1824
Vcorrection
p1825
tp1826
g1
(g6
tRp1827
Vis
p1828
F1
ss(g285
g837
tp1829
g1
(g6
tRp1830
S''
F1
ss(Vfictionpress
p1831
tp1832
g1
(g6
tRp1833
g988
F1
ss(Vfucking
p1834
Vshitstorm
p1835
tp1836
g1
(g6
tRp1837
S''
F1
ss(g1231
g1234
tp1838
g1
(g6
tRp1839
Vstep
p1840
F1
ss(Vold
p1841
tp1842
g1
(g6
tRp1843
S''
F0.5
sVrecaptcha
p1844
F0.5
ss(Vfor
p1845
g874
tp1846
g1
(g6
tRp1847
Vto
p1848
F1
ss(g1279
tp1849
g1
(g6
tRp1850
g1282
F1
ss(Vwith
p1851
g1110
tp1852
g1
(g6
tRp1853
g1111
F1
ss(Vor
p1854
g1146
tp1855
g1
(g6
tRp1856
g1147
F1
ss(g1530
g1533
tp1857
g1
(g6
tRp1858
g1247
F1
ss(Vin
p1859
g321
tp1860
g1
(g6
tRp1861
g322
F1
ss(g342
g345
tp1862
g1
(g6
tRp1863
g380
F1
ss(Vback
p1864
tp1865
g1
(g6
tRp1866
g456
F0.5
sg917
F0.5
ss(g1739
g1742
tp1867
g1
(g6
tRp1868
g9
F1
ss(g223
tp1869
g1
(g6
tRp1870
g224
F1
ss(g969
g366
tp1871
g1
(g6
tRp1872
Vmy
p1873
F1
ss(V"Hi,
p1874
VI'm
p1875
tp1876
g1
(g6
tRp1877
g93
F1
ss(VDamn
p1878
g1482
tp1879
g1
(g6
tRp1880
g1483
F1
ss(g335
Vpost
p1881
tp1882
g1
(g6
tRp1883
Vthere
p1884
F1
ss(g780
g783
tp1885
g1
(g6
tRp1886
Von
p1887
F1
ss(Vdirectly
p1888
Veffect
p1889
tp1890
g1
(g6
tRp1891
Vthings
p1892
F1
ss(VWith
p1893
tp1894
g1
(g6
tRp1895
V4chanx
p1896
F0.5
sVher
p1897
F0.5
ss(g907
g910
tp1898
g1
(g6
tRp1899
Vwarp
p1900
F1
ss(Vthird
p1901
tp1902
g1
(g6
tRp1903
Vimpact
p1904
F1
ss(VMari
p1905
Vis
p1906
tp1907
g1
(g6
tRp1908
Vpretty
p1909
F1
ss(g440
g443
tp1910
g1
(g6
tRp1911
Vwas
p1912
F1
ss(Vdon't
p1913
g29
tp1914
g1
(g6
tRp1915
Vhow
p1916
F0.5
sg349
F0.5
ss(g948
tp1917
g1
(g6
tRp1918
g951
F1
ss(Vbig
p1919
Vso
p1920
tp1921
g1
(g6
tRp1922
Vits
p1923
F1
ss(VSo
Vare
p1924
tp1925
g1
(g6
tRp1926
g77
F1
ss(Vwant
p1927
Vto
p1928
tp1929
g1
(g6
tRp1930
Vbe
p1931
F0.20000000000000001
sVorder/read
p1932
F0.20000000000000001
sg1457
F0.20000000000000001
sVknow
p1933
F0.20000000000000001
sVget
p1934
F0.20000000000000001
ss(g1104
tp1935
g1
(g6
tRp1936
Vof
p1937
F1
ss(g190
tp1938
g1
(g6
tRp1939
g193
F1
ss(g1196
g1199
tp1940
g1
(g6
tRp1941
g1851
F1
ss(g1142
Vwith
p1942
tp1943
g1
(g6
tRp1944
Va
F0.5
sVyour
p1945
F0.5
ss(VTry
p1946
tp1947
g1
(g6
tRp1948
Vsearch
p1949
F1
ss(Vwith
p1950
VDarjeeling
p1951
tp1952
g1
(g6
tRp1953
VIs
p1954
F1
ss(VI
g412
tp1955
g1
(g6
tRp1956
g413
F1
ss(Vother
p1957
g885
tp1958
g1
(g6
tRp1959
Vlike
p1960
F1
ss(Vdrunk
p1961
g1950
tp1962
g1
(g6
tRp1963
g1951
F1
ss(Vhe
p1964
Vdoesn't
p1965
tp1966
g1
(g6
tRp1967
Vhave
p1968
F1
ss(g648
g651
tp1969
g1
(g6
tRp1970
Vlittle
p1971
F1
ss(Veven
p1972
tp1973
g1
(g6
tRp1974
Va
F0.15384615384615385
sg1301
F0.15384615384615385
sg708
F0.15384615384615385
sVmake
p1975
F0.15384615384615385
sg131
F0.15384615384615385
sVmore
p1976
F0.23076923076923078
ss(Vis
p1977
Vgetting
p1978
tp1979
g1
(g6
tRp1980
VNTRed
p1981
F1
ss(g1928
g1931
tp1982
g1
(g6
tRp1983
Vabused
p1984
F0.5
sg1304
F0.5
ss(Vworry
p1985
Vabout
p1986
tp1987
g1
(g6
tRp1988
g821
F1
ss(Vmad
p1989
tp1990
g1
(g6
tRp1991
Vwhen
p1992
F1
ss(Vessentially
p1993
g417
tp1994
g1
(g6
tRp1995
g418
F1
ss(Vstart
p1996
Vlure
p1997
tp1998
g1
(g6
tRp1999
g130
F1
ss(g45
tp2000
g1
(g6
tRp2001
Vlike
p2002
F1
ss(Vfaster
p2003
g57
tp2004
g1
(g6
tRp2005
S''
F1
ss(Vno
p2006
Vway
p2007
tp2008
g1
(g6
tRp2009
g148
F1
ss(g1534
g1537
tp2010
g1
(g6
tRp2011
S''
F1
ss(g1175
g889
tp2012
g1
(g6
tRp2013
g298
F1
ss(Vdo
p2014
g716
tp2015
g1
(g6
tRp2016
g717
F0.5
sg1680
F0.5
ss(Vthan
p2017
tp2018
g1
(g6
tRp2019
Vme
p2020
F0.33333333333333331
sg4
F0.33333333333333331
sg1123
F0.33333333333333331
ss(Vworks,
p2021
Vwhy
p2022
tp2023
g1
(g6
tRp2024
Veven
p2025
F1
ss(g29
g349
tp2026
g1
(g6
tRp2027
g350
F1
ss(Vthe
p2028
g1159
tp2029
g1
(g6
tRp2030
g1162
F1
ss(g102
tp2031
g1
(g6
tRp2032
g103
F1
ss(g1617
g1620
tp2033
g1
(g6
tRp2034
VMUH
p2035
F1
ss(g2020
Vin
p2036
tp2037
g1
(g6
tRp2038
Va
F1
ss(Van
p2039
tp2040
g1
(g6
tRp2041
Veroge
p2042
F0.25
sg694
F0.25
sg1256
F0.25
sVevent
p2043
F0.25
ss(Vand
p2044
g1376
tp2045
g1
(g6
tRp2046
VMan
p2047
F1
ss(Vand
p2048
g1371
tp2049
g1
(g6
tRp2050
Vto
p2051
F1
ss(g615
g600
tp2052
g1
(g6
tRp2053
g601
F1
ss(g1951
g1954
tp2054
g1
(g6
tRp2055
Vthat
p2056
F1
ss(g2036
Va
tp2057
g1
(g6
tRp2058
Vway
p2059
F1
ss(g1082
g975
tp2060
g1
(g6
tRp2061
g265
F1
ss(Vsuffering
p2062
tp2063
g1
(g6
tRp2064
S''
F1
ss(g1708
tp2065
g1
(g6
tRp2066
Vonly
p2067
F0.5
sg638
F0.5
ss(Vhimself
p2068
tp2069
g1
(g6
tRp2070
Vshitpost
p2071
F1
ss(g825
tp2072
g1
(g6
tRp2073
g1176
F1
ss(Vfucked
p2074
tp2075
g1
(g6
tRp2076
Vup
p2077
F1
ss(g383
tp2078
g1
(g6
tRp2079
g384
F1
ss(g163
g408
tp2080
g1
(g6
tRp2081
g411
F1
ss(g30
Vwhat
p2082
tp2083
g1
(g6
tRp2084
Va
F0.5
sg1410
F0.5
ss(g95
tp2085
g1
(g6
tRp2086
g281
F1
ss(VHe
p2087
Vhad
p2088
tp2089
g1
(g6
tRp2090
g1318
F1
ss(Vstill
p2091
g478
tp2092
g1
(g6
tRp2093
g481
F1
ss(Vhow
p2094
Vthis
p2095
tp2096
g1
(g6
tRp2097
Vshit
p2098
F1
ss(g1300
tp2099
g1
(g6
tRp2100
Vone
p2101
F1
ss(g96
Vof
p2102
tp2103
g1
(g6
tRp2104
Va
F1
ss(Vwas
p2105
g1542
tp2106
g1
(g6
tRp2107
g1543
F1
ss(Vthe
p2108
g154
tp2109
g1
(g6
tRp2110
g155
F1
ss(g1986
g821
tp2111
g1
(g6
tRp2112
g822
F1
ss(Vanime
p2113
Vlooked
p2114
tp2115
g1
(g6
tRp2116
Vpretty
p2117
F1
ss(g418
g421
tp2118
g1
(g6
tRp2119
Vtropes
p2120
F1
ss(g129
g295
tp2121
g1
(g6
tRp2122
g257
F1
ss(Vwas
p2123
Vfeel
p2124
tp2125
g1
(g6
tRp2126
g206
F1
ss(Vthey
p2127
g337
tp2128
g1
(g6
tRp2129
Vaway
p2130
F1
ss(Vjust
p2131
g1927
tp2132
g1
(g6
tRp2133
g1928
F1
ss(g26
tp2134
g1
(g6
tRp2135
Vmake
p2136
F0.22222222222222221
sg29
F0.33333333333333331
sg30
F0.22222222222222221
sg831
F0.22222222222222221
ss(Vthis
p2137
Vmanga
p2138
tp2139
g1
(g6
tRp2140
g1818
F1
ss(V80s
p2141
tp2142
g1
(g6
tRp2143
S''
F1
ss(Vbarrier
p2144
tp2145
g1
(g6
tRp2146
VWhy
p2147
F1
ss(VI
tp2148
g1
(g6
tRp2149
g1721
F0.039215686274509803
sVwould
p2150
F0.039215686274509803
sVlove
p2151
F0.039215686274509803
sVwant
p2152
F0.098039215686274508
sg2131
F0.058823529411764705
sg26
F0.058823529411764705
sg371
F0.039215686274509803
sg635
F0.039215686274509803
sVfind
p2153
F0.039215686274509803
sg412
F0.039215686274509803
sVshould
p2154
F0.039215686274509803
sg473
F0.039215686274509803
sVhave
p2155
F0.058823529411764705
sVcan
p2156
F0.058823529411764705
sg538
F0.058823529411764705
sg1231
F0.039215686274509803
sg1105
F0.039215686274509803
sg2123
F0.058823529411764705
sg943
F0.039215686274509803
sg901
F0.039215686274509803
sVknow
p2157
F0.039215686274509803
ss(VThere's
p2158
Vno
p2159
tp2160
g1
(g6
tRp2161
Vfucking
p2162
F1
ss(VOR
p2163
tp2164
g1
(g6
tRp2165
Vit's
p2166
F1
ss(Vlookalike
p2167
tp2168
g1
(g6
tRp2169
S''
F1
ss(g2006
tp2170
g1
(g6
tRp2171
g1063
F0.16666666666666666
sVlonger
p2172
F0.16666666666666666
sVI
F0.16666666666666666
sg585
F0.16666666666666666
sg2162
F0.16666666666666666
sg2007
F0.16666666666666666
ss(Vfacebook
p2173
Vfilename
p2174
tp2175
g1
(g6
tRp2176
g1003
F1
ss(Vwithout
p2177
tp2178
g1
(g6
tRp2179
Vcute
p2180
F1
ss(VBarakamon,
p2181
VOP
p2182
tp2183
g1
(g6
tRp2184
S''
F1
ss(g677
g1607
tp2185
g1
(g6
tRp2186
Vlicensing
p2187
F0.5
sVshow
p2188
F0.5
ss(g2035
tp2189
g1
(g6
tRp2190
g1419
F1
ss(Vrather
p2191
tp2192
g1
(g6
tRp2193
Vnot
p2194
F0.5
sg469
F0.5
ss(Vhis
p2195
tp2196
g1
(g6
tRp2197
Vown
p2198
F0.16666666666666666
sg617
F0.16666666666666666
sg1397
F0.16666666666666666
sVpenis
p2199
F0.16666666666666666
sg1151
F0.16666666666666666
sVfirst
p2200
F0.16666666666666666
ss(g829
tp2201
g1
(g6
tRp2202
S''
F1
ss(g1282
g860
tp2203
g1
(g6
tRp2204
g863
F1
ss(Vlinks
p2205
tp2206
g1
(g6
tRp2207
g793
F1
ss(g1424
Vbegin
p2208
tp2209
g1
(g6
tRp2210
g1765
F1
ss(Vto
g1932
tp2211
g1
(g6
tRp2212
Vthe
p2213
F1
ss(g2158
tp2214
g1
(g6
tRp2215
g2159
F1
ss(VGilles
p2216
tp2217
g1
(g6
tRp2218
g2167
F1
ss(g16
tp2219
g1
(g6
tRp2220
Vas
p2221
F1
ss(g365
Vthe
p2222
tp2223
g1
(g6
tRp2224
g1159
F0.16666666666666666
sVrain
p2225
F0.16666666666666666
sVfew
p2226
F0.16666666666666666
sVother
p2227
F0.16666666666666666
sVcharacters
p2228
F0.16666666666666666
sVtime
p2229
F0.16666666666666666
ss(g1049
Vserie
p2230
tp2231
g1
(g6
tRp2232
g703
F1
ss(VToo
p2233
tp2234
g1
(g6
tRp2235
Vbad
p2236
F1
ss(g609
g679
tp2237
g1
(g6
tRp2238
g680
F1
ss(g1395
Vlike
p2239
tp2240
g1
(g6
tRp2241
Va
F1
ss(Vmatsuki's
p2242
tp2243
g1
(g6
tRp2244
g13
F1
ss(Vcan,
p2245
tp2246
g1
(g6
tRp2247
Vwhat,
p2248
F1
ss(g2098
g2021
tp2249
g1
(g6
tRp2250
g2022
F1
ss(Vhow
p2251
tp2252
g1
(g6
tRp2253
Vslutty
p2254
F0.13333333333333333
sVabout
p2255
F0.13333333333333333
sg2095
F0.13333333333333333
sVit
p2256
F0.13333333333333333
sg31
F0.13333333333333333
sg2127
F0.13333333333333333
sg577
F0.20000000000000001
ss(g523
tp2257
g1
(g6
tRp2258
g250
F1
ss(g1607
g2188
tp2259
g1
(g6
tRp2260
Vor
p2261
F1
ss(Vhorrifying
p2262
tp2263
g1
(g6
tRp2264
g657
F1
ss(Vwhy
p2265
Vthe
p2266
tp2267
g1
(g6
tRp2268
g1576
F1
ss(Veach
p2269
Vother
p2270
tp2271
g1
(g6
tRp2272
S''
F1
ss(Vfan
p2273
g1292
tp2274
g1
(g6
tRp2275
S''
F0.5
sg1295
F0.5
ss(g1162
Va
tp2276
g1
(g6
tRp2277
g1511
F1
ss(g116
g689
tp2278
g1
(g6
tRp2279
g674
F1
ss(Vis
p2280
Vtoo
p2281
tp2282
g1
(g6
tRp2283
VOP
p2284
F1
ss(Vhe
p2285
Vliked
p2286
tp2287
g1
(g6
tRp2288
Vher
p2289
F1
ss(g1931
g1984
tp2290
g1
(g6
tRp2291
Vby
p2292
F1
ss(Vbiggest
p2293
tp2294
g1
(g6
tRp2295
Vorganization
p2296
F1
ss(g740
g743
tp2297
g1
(g6
tRp2298
Vand
p2299
F1
ss(g22
g25
tp2300
g1
(g6
tRp2301
g924
F1
ss(g586
g590
tp2302
g1
(g6
tRp2303
g894
F1
ss(g616
Vbetter
p2304
tp2305
g1
(g6
tRp2306
Va
F1
ss(VEva
p2307
tp2308
g1
(g6
tRp2309
Vshows
p2310
F1
ss(g1217
g1743
tp2311
g1
(g6
tRp2312
g1744
F1
ss(Vstranger
p2313
tp2314
g1
(g6
tRp2315
Vin
p2316
F1
ss(Vfaggot
p2317
tp2318
g1
(g6
tRp2319
S''
F1
ss(g1640
Vis
p2320
tp2321
g1
(g6
tRp2322
Valmost
p2323
F1
ss(g358
tp2324
g1
(g6
tRp2325
g359
F1
ss(g350
g353
tp2326
g1
(g6
tRp2327
Vyou're
p2328
F1
ss(Vgirls
p2329
Vmade
p2330
tp2331
g1
(g6
tRp2332
Vin
p2333
F1
ss(g473
tp2334
g1
(g6
tRp2335
g474
F1
ss(g1404
tp2336
g1
(g6
tRp2337
Vand
p2338
F0.5
sg809
F0.5
ss(g1214
tp2339
g1
(g6
tRp2340
g1217
F1
ss(g384
g387
tp2341
g1
(g6
tRp2342
g1000
F1
ss(g837
tp2343
g1
(g6
tRp2344
S''
F1
ss(VYes
p2345
tp2346
g1
(g6
tRp2347
S''
F1
ss(g703
tp2348
g1
(g6
tRp2349
g704
F1
ss(Vstick
p2350
Vwith
p2351
tp2352
g1
(g6
tRp2353
Vme
p2354
F1
ss(Vshould
p2355
Vreally
p2356
tp2357
g1
(g6
tRp2358
Vkill
p2359
F1
ss(Vhis
p2360
g2200
tp2361
g1
(g6
tRp2362
g64
F1
ss(Vand
p2363
g1369
tp2364
g1
(g6
tRp2365
g1831
F1
ss(g1213
tp2366
g1
(g6
tRp2367
Vrespective
p2368
F0.25
sg1279
F0.25
sVminds
p2369
F0.25
sVprofiles
p2370
F0.25
ss(g1114
g1786
tp2371
g1
(g6
tRp2372
g1787
F1
ss(g353
g2328
tp2373
g1
(g6
tRp2374
Vinto
p2375
F1
ss(g801
tp2376
g1
(g6
tRp2377
g802
F1
ss(g416
g1425
tp2378
g1
(g6
tRp2379
g1222
F1
ss(g1263
tp2380
g1
(g6
tRp2381
g53
F1
ss(g971
g974
tp2382
g1
(g6
tRp2383
g518
F1
ss(g1896
Vyou
p2384
tp2385
g1
(g6
tRp2386
Vcan
p2387
F1
ss(g772
g605
tp2388
g1
(g6
tRp2389
g609
F1
ss(VShort
p2390
Vfilms
p2391
tp2392
g1
(g6
tRp2393
Vare
p2394
F1
ss(g1478
tp2395
g1
(g6
tRp2396
g1479
F1
ss(g1235
tp2397
g1
(g6
tRp2398
g1238
F1
ss(g1523
g1526
tp2399
g1
(g6
tRp2400
Vhe
p2401
F1
ss(Vof
p2402
Vus
p2403
tp2404
g1
(g6
tRp2405
S''
F1
ss(g568
tp2406
g1
(g6
tRp2407
g569
F1
ss(g2124
tp2408
g1
(g6
tRp2409
g206
F1
ss(Vmiya
p2410
g2242
tp2411
g1
(g6
tRp2412
g13
F1
ss(g508
g1711
tp2413
g1
(g6
tRp2414
g198
F1
ss(Vmy
g1191
tp2415
g1
(g6
tRp2416
g1192
F1
ss(V30
p2417
Vyears
p2418
tp2419
g1
(g6
tRp2420
Vold
p2421
F1
ss(g863
Vto
p2422
tp2423
g1
(g6
tRp2424
g2074
F1
ss(Vsupposed
p2425
tp2426
g1
(g6
tRp2427
Vto
p2428
F1
ss(Vhave
p2429
g1337
tp2430
g1
(g6
tRp2431
g759
F1
ss(g237
tp2432
g1
(g6
tRp2433
g238
F1
ss(Voriginal
p2434
Vyeshdoujin
p2435
tp2436
g1
(g6
tRp2437
Vno
p2438
F1
ss(g539
tp2439
g1
(g6
tRp2440
g1916
F0.33333333333333331
sg439
F0.33333333333333331
sg349
F0.33333333333333331
ss(Vsave
p2441
Vthe
p2442
tp2443
g1
(g6
tRp2444
Vday
p2445
F1
ss(Vdropped
p2446
g978
tp2447
g1
(g6
tRp2448
g979
F1
ss(VNice
p2449
Vbump,
p2450
tp2451
g1
(g6
tRp2452
g1648
F1
ss(g2236
tp2453
g1
(g6
tRp2454
V/a/
p2455
F1
ss(g1048
Vand
p2456
tp2457
g1
(g6
tRp2458
g1372
F0.5
sg2429
F0.5
ss(Vplus
p2459
tp2460
g1
(g6
tRp2461
Vare
p2462
F1
ss(g2222
g2225
tp2463
g1
(g6
tRp2464
Vpuddles,
p2465
F1
ss(g340
tp2466
g1
(g6
tRp2467
Vto
p2468
F1
ss(g1365
Vthe
p2469
tp2470
g1
(g6
tRp2471
VNATURE
p2472
F1
ss(VBut
p2473
g523
tp2474
g1
(g6
tRp2475
g250
F1
ss(Vevil
p2476
tp2477
g1
(g6
tRp2478
g648
F1
ss(g2039
g694
tp2479
g1
(g6
tRp2480
g695
F1
ss(Vskeleton
p2481
tp2482
g1
(g6
tRp2483
g970
F1
ss(Vthe
p2484
g1841
tp2485
g1
(g6
tRp2486
g1844
F1
ss(g2188
g2261
tp2487
g1
(g6
tRp2488
g1270
F1
ss(g802
g805
tp2489
g1
(g6
tRp2490
g1957
F1
ss(g2296
tp2491
g1
(g6
tRp2492
S''
F1
ss(Va
tp2493
g1
(g6
tRp2494
g139
F0.039215686274509803
sg631
F0.039215686274509803
sg2481
F0.039215686274509803
sVfucking
p2495
F0.058823529411764705
sVgood
p2496
F0.039215686274509803
sg125
F0.039215686274509803
sg867
F0.039215686274509803
sVbetter
p2497
F0.039215686274509803
sVfew
p2498
F0.058823529411764705
sVlot
p2499
F0.039215686274509803
sVwoman
p2500
F0.039215686274509803
sg2059
F0.058823529411764705
sg1115
F0.039215686274509803
sg2317
F0.039215686274509803
sVdiscount
p2501
F0.039215686274509803
sg2173
F0.039215686274509803
sg60
F0.039215686274509803
sVnovel
p2502
F0.039215686274509803
sg2313
F0.039215686274509803
sg426
F0.039215686274509803
sVthing"
p2503
F0.039215686274509803
sg755
F0.039215686274509803
sg2262
F0.039215686274509803
sg1350
F0.039215686274509803
ss(g1912
tp2504
g1
(g6
tRp2505
g1972
F0.1111111111111111
sVa
F0.1111111111111111
sg2124
F0.1111111111111111
sVoutside
p2506
F0.1111111111111111
sg2425
F0.1111111111111111
sg547
F0.1111111111111111
sVthe
p2507
F0.1111111111111111
sg948
F0.1111111111111111
sg1542
F0.1111111111111111
ss(g938
Vyou're
p2508
tp2509
g1
(g6
tRp2510
Vdoing
p2511
F1
ss(Vto
p2512
g1933
tp2513
g1
(g6
tRp2514
g307
F1
ss(Vno
p2515
g2172
tp2516
g1
(g6
tRp2517
Vlook
p2518
F1
ss(g693
tp2519
g1
(g6
tRp2520
Vshows
p2521
F1
ss(g150
tp2522
g1
(g6
tRp2523
g153
F1
ss(VI'd
p2524
g2191
tp2525
g1
(g6
tRp2526
g2194
F1
ss(g1111
g1114
tp2527
g1
(g6
tRp2528
g1786
F1
ss(g153
g954
tp2529
g1
(g6
tRp2530
Von
p2531
F1
ss(VMy
p2532
tp2533
g1
(g6
tRp2534
g1186
F1
ss(g2293
g2296
tp2535
g1
(g6
tRp2536
S''
F1
ss(g1616
g2195
tp2537
g1
(g6
tRp2538
g1151
F0.5
sg617
F0.5
ss(g2227
g883
tp2539
g1
(g6
tRp2540
S''
F1
ss(g2131
tp2541
g1
(g6
tRp2542
Va
F0.1111111111111111
sg2417
F0.07407407407407407
sVfrom
p2543
F0.07407407407407407
sg1218
F0.07407407407407407
sVhad
p2544
F0.07407407407407407
sVdon't
p2545
F0.07407407407407407
sVwell
p2546
F0.07407407407407407
sVsaid
p2547
F0.07407407407407407
sg1927
F0.07407407407407407
sg1557
F0.07407407407407407
sVask
p2548
F0.07407407407407407
sg1347
F0.07407407407407407
sg2265
F0.07407407407407407
ss(g2239
Va
tp2549
g1
(g6
tRp2550
g2495
F0.5
sg2317
F0.5
ss(g229
g232
tp2551
g1
(g6
tRp2552
g1334
F1
ss(g2503
g2363
tp2553
g1
(g6
tRp2554
g1369
F1
ss(g1904
tp2555
g1
(g6
tRp2556
S''
F1
ss(g266
tp2557
g1
(g6
tRp2558
g269
F1
ss(g510
g513
tp2559
g1
(g6
tRp2560
g1825
F0.5
sg2216
F0.5
ss(g180
g859
tp2561
g1
(g6
tRp2562
g1563
F1
ss(g2546
Voperated
p2563
tp2564
g1
(g6
tRp2565
S''
F1
ss(g2354
VHow
p2566
tp2567
g1
(g6
tRp2568
Vthe
p2569
F1
ss(Vplace
p2570
Vhim
p2571
tp2572
g1
(g6
tRp2573
Vsomewhere
p2574
F1
ss(g1505
g246
tp2575
g1
(g6
tRp2576
g249
F1
ss(g2042
tp2577
g1
(g6
tRp2578
VI
F1
ss(g4
g8
tp2579
g1
(g6
tRp2580
V99%
p2581
F1
ss(g2281
tp2582
g1
(g6
tRp2583
g2284
F1
ss(g1073
tp2584
g1
(g6
tRp2585
g1074
F1
ss(g2544
Va
tp2586
g1
(g6
tRp2587
g2496
F1
ss(Vended
p2588
Vup
p2589
tp2590
g1
(g6
tRp2591
Vwith
p2592
F1
ss(g2188
tp2593
g1
(g6
tRp2594
g2261
F0.5
sg160
F0.5
ss(Va
g2500
tp2595
g1
(g6
tRp2596
g189
F1
ss(g418
tp2597
g1
(g6
tRp2598
g421
F1
ss(g1295
g117
tp2599
g1
(g6
tRp2600
g118
F1
ss(Vscenes
p2601
Vin
p2602
tp2603
g1
(g6
tRp2604
Vanime
p2605
F1
ss(g2071
Vhis
p2606
tp2607
g1
(g6
tRp2608
g2198
F1
ss(g1909
g1652
tp2609
g1
(g6
tRp2610
g1653
F1
ss(Vin
p2611
Vfor
p2612
tp2613
g1
(g6
tRp2614
Va
F1
ss(g2229
g797
tp2615
g1
(g6
tRp2616
g798
F1
ss(g89
Vgirl
p2617
tp2618
g1
(g6
tRp2619
g870
F1
ss(g627
g630
tp2620
g1
(g6
tRp2621
Vof
p2622
F1
ss(Vscreams
p2623
tp2624
g1
(g6
tRp2625
Vbut
p2626
F1
ss(g792
g851
tp2627
g1
(g6
tRp2628
g1813
F1
ss(g661
g664
tp2629
g1
(g6
tRp2630
S''
F1
ss(g1077
g1364
tp2631
g1
(g6
tRp2632
Vand
p2633
F1
ss(g1371
tp2634
g1
(g6
tRp2635
g2051
F1
ss(g1109
g1916
tp2636
g1
(g6
tRp2637
g2127
F1
ss(g2173
tp2638
g1
(g6
tRp2639
g2174
F1
ss(g1479
g149
tp2640
g1
(g6
tRp2641
g150
F1
ss(g1752
g1755
tp2642
g1
(g6
tRp2643
g2545
F1
ss(g2154
Vgo
p2644
tp2645
g1
(g6
tRp2646
Vthere
p2647
F1
ss(g1896
tp2648
g1
(g6
tRp2649
g2384
F1
ss(g725
Vrival
p2650
tp2651
g1
(g6
tRp2652
g1901
F1
ss(g2056
g734
tp2653
g1
(g6
tRp2654
Vthe
p2655
F1
ss(g698
g1717
tp2656
g1
(g6
tRp2657
g1720
F1
ss(g1526
g2401
tp2658
g1
(g6
tRp2659
Vwas
p2660
F1
ss(g743
tp2661
g1
(g6
tRp2662
g2299
F1
ss(g2245
g2248
tp2663
g1
(g6
tRp2664
Vthink
p2665
F1
ss(g2391
tp2666
g1
(g6
tRp2667
g2394
F1
ss(g446
g176
tp2668
g1
(g6
tRp2669
g1534
F1
ss(Vbecause
p2670
g1078
tp2671
g1
(g6
tRp2672
g937
F1
ss(g882
g768
tp2673
g1
(g6
tRp2674
g769
F1
ss(g1507
g1510
tp2675
g1
(g6
tRp2676
g2280
F1
ss(g1145
tp2677
g1
(g6
tRp2678
Va
F0.20000000000000001
sVlittle
p2679
F0.20000000000000001
sg898
F0.20000000000000001
sg211
F0.20000000000000001
sg2039
F0.20000000000000001
ss(g206
g209
tp2680
g1
(g6
tRp2681
S''
F1
ss(VHOMOSEXUAL
p2682
tp2683
g1
(g6
tRp2684
S''
F1
ss(Vthen
p2685
Vthere's
p2686
tp2687
g1
(g6
tRp2688
g2006
F1
ss(Vhad
p2689
tp2690
g1
(g6
tRp2691
Va
F0.22222222222222221
sVto
p2692
F0.33333333333333331
sg1318
F0.22222222222222221
sg1446
F0.22222222222222221
ss(g411
tp2693
g1
(g6
tRp2694
g1473
F1
ss(VDespair
p2695
Vis
p2696
tp2697
g1
(g6
tRp2698
g826
F1
ss(g846
g431
tp2699
g1
(g6
tRp2700
g432
F1
ss(g1972
g1301
tp2701
g1
(g6
tRp2702
S''
F1
ss(g198
g201
tp2703
g1
(g6
tRp2704
g611
F1
ss(Vmy
p2705
tp2706
g1
(g6
tRp2707
g1248
F0.16666666666666666
sVfavourite
p2708
F0.16666666666666666
sg1573
F0.16666666666666666
sg1191
F0.16666666666666666
sg237
F0.16666666666666666
sg1777
F0.16666666666666666
ss(g43
g1802
tp2709
g1
(g6
tRp2710
g1805
F1
ss(g1284
g1287
tp2711
g1
(g6
tRp2712
Vkids
p2713
F1
ss(Va
g2497
tp2714
g1
(g6
tRp2715
Videa,
p2716
F1
ss(g863
tp2717
g1
(g6
tRp2718
g2422
F1
ss(g404
g407
tp2719
g1
(g6
tRp2720
g469
F1
ss(g610
g1242
tp2721
g1
(g6
tRp2722
g1243
F1
ss(g1150
tp2723
g1
(g6
tRp2724
Vsmall
p2725
F1
ss(g2725
g1617
tp2726
g1
(g6
tRp2727
g1620
F1
ss(g2501
tp2728
g1
(g6
tRp2729
g2685
F1
ss(g1912
g1972
tp2730
g1
(g6
tRp2731
g1301
F1
ss(g693
g2521
tp2732
g1
(g6
tRp2733
Vyou
p2734
F1
ss(VSo
Vthe
p2735
tp2736
g1
(g6
tRp2737
g514
F1
ss(g245
g264
tp2738
g1
(g6
tRp2739
Va
F1
ss(g1199
g1851
tp2740
g1
(g6
tRp2741
g1110
F1
ss(g783
g1887
tp2742
g1
(g6
tRp2743
g177
F1
ss(Vsearch
p2744
tp2745
g1
(g6
tRp2746
S''
F0.5
sVbetter
p2747
F0.5
ss(g717
g720
tp2748
g1
(g6
tRp2749
Vover
p2750
F1
ss(Vstrength
p2751
tp2752
g1
(g6
tRp2753
S''
F1
ss(g924
g927
tp2754
g1
(g6
tRp2755
Vone
p2756
F1
ss(g69
tp2757
g1
(g6
tRp2758
g72
F1
ss(g1039
g1042
tp2759
g1
(g6
tRp2760
g388
F1
ss(g534
g537
tp2761
g1
(g6
tRp2762
VIt's
p2763
F1
ss(g1887
g177
tp2764
g1
(g6
tRp2765
g180
F1
ss(Vnot
p2766
Vreally
p2767
tp2768
g1
(g6
tRp2769
Vdead
p2770
F0.5
sVrelated
p2771
F0.5
ss(g2172
g2518
tp2772
g1
(g6
tRp2773
Vlike
p2774
F1
ss(Vfor
p2775
g875
tp2776
g1
(g6
tRp2777
g1520
F1
ss(VYang
p2778
tp2779
g1
(g6
tRp2780
Vteitoku
p2781
F1
ss(Vout
p2782
tp2783
g1
(g6
tRp2784
g1661
F0.5
sg2273
F0.5
ss(VGo
p2785
g916
tp2786
g1
(g6
tRp2787
g917
F1
ss(VOh
p2788
tp2789
g1
(g6
tRp2790
Vmy
p2791
F1
ss(Vscenes
p2792
tp2793
g1
(g6
tRp2794
V(I
p2795
F0.5
sg2602
F0.5
ss(g564
g567
tp2796
g1
(g6
tRp2797
g683
F1
ss(Van
p2798
g2042
tp2799
g1
(g6
tRp2800
VI
F1
ss(g464
Vcatch
p2801
tp2802
g1
(g6
tRp2803
Vfire
p2804
F1
ss(g1401
g530
tp2805
g1
(g6
tRp2806
g531
F1
ss(g158
tp2807
g1
(g6
tRp2808
Vnot
p2809
F1
ss(g776
g779
tp2810
g1
(g6
tRp2811
g505
F1
ss(Vamusing
p2812
Vis
p2813
tp2814
g1
(g6
tRp2815
g1163
F1
ss(g2545
g2136
tp2816
g1
(g6
tRp2817
Va
F1
ss(Vanything
p2818
g692
tp2819
g1
(g6
tRp2820
g1985
F1
ss(g2812
tp2821
g1
(g6
tRp2822
g2813
F1
ss(g158
g2809
tp2823
g1
(g6
tRp2824
g1135
F1
ss(g1159
g1162
tp2825
g1
(g6
tRp2826
Va
F1
ss(g1457
tp2827
g1
(g6
tRp2828
Va
F1
ss(g460
Vhow
p2829
tp2830
g1
(g6
tRp2831
g2256
F1
ss(g2281
g2284
tp2832
g1
(g6
tRp2833
Vbecause
p2834
F1
ss(Vflying
p2835
tp2836
g1
(g6
tRp2837
g1432
F1
ss(g814
g817
tp2838
g1
(g6
tRp2839
Vor
p2840
F1
ss(g46
g49
tp2841
g1
(g6
tRp2842
g1050
F0.5
sg1048
F0.5
ss(g2781
g1874
tp2843
g1
(g6
tRp2844
g1875
F1
ss(g982
Va
tp2845
g1
(g6
tRp2846
g631
F1
ss(g2316
Vthe
p2847
tp2848
g1
(g6
tRp2849
Vnovels
p2850
F0.14285714285714285
sVInternet
p2851
F0.14285714285714285
sg2141
F0.14285714285714285
sg1155
F0.14285714285714285
sVsense
p2852
F0.14285714285714285
sVreport
p2853
F0.14285714285714285
sg303
F0.14285714285714285
ss(g2368
Vseries
p2854
tp2855
g1
(g6
tRp2856
S''
F1
ss(g367
g370
tp2857
g1
(g6
tRp2858
Vthe
p2859
F1
ss(g2501
g2685
tp2860
g1
(g6
tRp2861
g2686
F1
ss(g1919
tp2862
g1
(g6
tRp2863
g1920
F1
ss(Vthat
p2864
g724
tp2865
g1
(g6
tRp2866
Vhad
p2867
F1
ss(VWhile
p2868
tp2869
g1
(g6
tRp2870
Vhe
p2871
F1
ss(g2469
g2472
tp2872
g1
(g6
tRp2873
Vof
p2874
F1
ss(g2456
g1372
tp2875
g1
(g6
tRp2876
g1864
F1
ss(Vanime
p2877
tp2878
g1
(g6
tRp2879
S''
F0.16666666666666666
sg1425
F0.16666666666666666
sVthat
p2880
F0.16666666666666666
sVis
p2881
F0.16666666666666666
sg2114
F0.16666666666666666
sg2177
F0.16666666666666666
ss(Vjust
p2882
g2265
tp2883
g1
(g6
tRp2884
g2266
F1
ss(g2292
Va
tp2885
g1
(g6
tRp2886
g2313
F1
ss(g1369
tp2887
g1
(g6
tRp2888
g1831
F1
ss(Vthough
p2889
tp2890
g1
(g6
tRp2891
S''
F1
ss(Vto
p2892
g1547
tp2893
g1
(g6
tRp2894
g801
F1
ss(g2881
Vthis
p2895
tp2896
g1
(g6
tRp2897
S''
F1
ss(g443
g1912
tp2898
g1
(g6
tRp2899
g1972
F1
ss(g2756
g365
tp2900
g1
(g6
tRp2901
g2222
F0.59999999999999998
sVyou
p2902
F0.40000000000000002
ss(g2716
tp2903
g1
(g6
tRp2904
g2251
F1
ss(g962
g17
tp2905
g1
(g6
tRp2906
g18
F1
ss(g1992
VNGE
p2907
tp2908
g1
(g6
tRp2909
g1264
F1
ss(g1984
g2292
tp2910
g1
(g6
tRp2911
Va
F1
ss(g1932
tp2912
g1
(g6
tRp2913
g2213
F1
ss(Vjust
p2914
g1347
tp2915
g1
(g6
tRp2916
S''
F1
ss(Vrapin
p2917
tp2918
g1
(g6
tRp2919
S''
F1
ss(g2251
g2255
tp2920
g1
(g6
tRp2921
Vyou
p2922
F1
ss(g1368
Vof
p2923
tp2924
g1
(g6
tRp2925
Vmangas
p2926
F1
ss(g1192
g1195
tp2927
g1
(g6
tRp2928
g842
F1
ss(g2307
g2310
tp2929
g1
(g6
tRp2930
g573
F1
ss(g1923
Vprobably
p2931
tp2932
g1
(g6
tRp2933
Vthe
p2934
F1
ss(Vcomfy
p2935
tp2936
g1
(g6
tRp2937
Vthan
p2938
F1
ss(g2067
g2611
tp2939
g1
(g6
tRp2940
g2612
F1
ss(g2369
Vthere
p2941
tp2942
g1
(g6
tRp2943
g1046
F1
ss(g131
tp2944
g1
(g6
tRp2945
g134
F1
ss(g2546
tp2946
g1
(g6
tRp2947
g2563
F0.2857142857142857
sS''
F0.42857142857142855
sg558
F0.2857142857142857
ss(g403
g965
tp2948
g1
(g6
tRp2949
g966
F1
ss(g1050
tp2950
g1
(g6
tRp2951
g1585
F1
ss(g1499
g2048
tp2952
g1
(g6
tRp2953
g1371
F1
ss(g2199
Vand
p2954
tp2955
g1
(g6
tRp2956
g1365
F1
ss(g1007
tp2957
g1
(g6
tRp2958
g1716
F1
ss(g2543
g1735
tp2959
g1
(g6
tRp2960
S''
F1
ss(VThey
p2961
g2689
tp2962
g1
(g6
tRp2963
g2692
F1
ss(g1945
tp2964
g1
(g6
tRp2965
g554
F0.33333333333333331
sVlittle
p2966
F0.33333333333333331
sg1088
F0.33333333333333331
ss(g1772
tp2967
g1
(g6
tRp2968
g1782
F0.5
sg825
F0.5
ss(VWatch
p2969
g2181
tp2970
g1
(g6
tRp2971
g2182
F1
ss(g2923
g2926
tp2972
g1
(g6
tRp2973
Vand
p2974
F1
ss(g63
g776
tp2975
g1
(g6
tRp2976
g779
F1
ss(g374
g595
tp2977
g1
(g6
tRp2978
g596
F1
ss(g2617
g870
tp2979
g1
(g6
tRp2980
g873
F1
ss(g277
VI
tp2981
g1
(g6
tRp2982
g901
F1
ss(g481
g375
tp2983
g1
(g6
tRp2984
g376
F1
ss(Vsaucenao
p2985
g2775
tp2986
g1
(g6
tRp2987
g875
F1
ss(g1134
tp2988
g1
(g6
tRp2989
g1260
F1
ss(g13
g16
tp2990
g1
(g6
tRp2991
g2221
F1
ss(g1093
tp2992
g1
(g6
tRp2993
g1094
F1
ss(g1813
g2695
tp2994
g1
(g6
tRp2995
g2696
F1
ss(Vrip
p2996
g1738
tp2997
g1
(g6
tRp2998
g1739
F1
ss(g2782
g1661
tp2999
g1
(g6
tRp3000
g1662
F1
ss(g1404
g809
tp3001
g1
(g6
tRp3002
g810
F1
ss(g325
tp3003
g1
(g6
tRp3004
g1078
F0.22222222222222221
sg2285
F0.33333333333333331
sg2035
F0.22222222222222221
sg553
F0.22222222222222221
ss(VContract
p3005
tp3006
g1
(g6
tRp3007
g493
F1
ss(g1482
tp3008
g1
(g6
tRp3009
g1483
F1
ss(g768
tp3010
g1
(g6
tRp3011
g769
F1
ss(g1647
Vwatch,
p3012
tp3013
g1
(g6
tRp3014
g2459
F1
ss(g1888
tp3015
g1
(g6
tRp3016
g1889
F1
ss(Vthe
p3017
g2229
tp3018
g1
(g6
tRp3019
g797
F1
ss(g2182
tp3020
g1
(g6
tRp3021
S''
F0.5
sg2834
F0.5
ss(g1742
g9
tp3022
g1
(g6
tRp3023
g10
F1
ss(g2025
g1975
tp3024
g1
(g6
tRp3025
Vit
p3026
F1
ss(g2147
Vnot
p3027
tp3028
g1
(g6
tRp3029
S''
F1
ss(g1110
tp3030
g1
(g6
tRp3031
g1111
F1
ss(g1731
g1734
tp3032
g1
(g6
tRp3033
g886
F1
ss(g1180
tp3034
g1
(g6
tRp3035
Vthink
p3036
F1
ss(VI
g2156
tp3037
g1
(g6
tRp3038
Vread
p3039
F0.5
sg776
F0.5
ss(g365
tp3040
g1
(g6
tRp3041
Va
F0.043478260869565216
sg601
F0.043478260869565216
sg1752
F0.043478260869565216
sg1396
F0.043478260869565216
sg1662
F0.065217391304347824
sVsense
p3042
F0.043478260869565216
sVpic
p3043
F0.043478260869565216
sVit
p3044
F0.043478260869565216
sg2403
F0.043478260869565216
sVTrade
p3045
F0.043478260869565216
sV/a/
p3046
F0.043478260869565216
sg2062
F0.043478260869565216
sg2695
F0.043478260869565216
sg342
F0.043478260869565216
sVyear
p3047
F0.043478260869565216
sg2902
F0.043478260869565216
sg2222
F0.15217391304347827
sg2926
F0.043478260869565216
sg2682
F0.043478260869565216
sg1081
F0.043478260869565216
ss(g2931
tp3048
g1
(g6
tRp3049
g2934
F0.5
sVjust
p3050
F0.5
ss(g1997
tp3051
g1
(g6
tRp3052
g130
F1
ss(VMisato,
p3053
tp3054
g1
(g6
tRp3055
Vand
p3056
F1
ss(VProbably
p3057
V100%
p3058
tp3059
g1
(g6
tRp3060
S''
F1
ss(g336
g1218
tp3061
g1
(g6
tRp3062
g1221
F1
ss(g1491
g1494
tp3063
g1
(g6
tRp3064
g2476
F1
ss(g1539
g1069
tp3065
g1
(g6
tRp3066
g1070
F1
ss(g264
tp3067
g1
(g6
tRp3068
Va
F1
ss(g1259
g1356
tp3069
g1
(g6
tRp3070
g1200
F1
ss(g1360
g1660
tp3071
g1
(g6
tRp3072
g2062
F1
ss(g327
g330
tp3073
g1
(g6
tRp3074
Vhis
p3075
F1
ss(g1996
tp3076
g1
(g6
tRp3077
g1997
F1
ss(g1192
tp3078
g1
(g6
tRp3079
g1195
F1
ss(Vhave
p3080
Vliked
p3081
tp3082
g1
(g6
tRp3083
g2892
F1
ss(g591
tp3084
g1
(g6
tRp3085
g592
F1
ss(VI
g2152
tp3086
g1
(g6
tRp3087
g2512
F1
ss(Va
g1115
tp3088
g1
(g6
tRp3089
g1118
F1
ss(g657
g501
tp3090
g1
(g6
tRp3091
g504
F1
ss(g1881
g1884
tp3092
g1
(g6
tRp3093
Vfirst
p3094
F1
ss(g197
g1239
tp3095
g1
(g6
tRp3096
g838
F1
ss(g1720
tp3097
g1
(g6
tRp3098
Vtell
p3099
F0.5
sg1968
F0.5
ss(g1942
g1945
tp3100
g1
(g6
tRp3101
g1088
F1
ss(Vfor
p3102
g876
tp3103
g1
(g6
tRp3104
g2205
F1
ss(Vto
p3105
g1553
tp3106
g1
(g6
tRp3107
g1554
F1
ss(g2813
g1163
tp3108
g1
(g6
tRp3109
g1164
F1
ss(g2216
g2167
tp3110
g1
(g6
tRp3111
S''
F1
ss(g1389
Vbecause
p3112
tp3113
g1
(g6
tRp3114
g2285
F1
ss(g3012
g2459
tp3115
g1
(g6
tRp3116
g2462
F1
ss(g2771
tp3117
g1
(g6
tRp3118
S''
F1
ss(Vinferred,
p3119
tp3120
g1
(g6
tRp3121
g1854
F1
ss(g1151
g1154
tp3122
g1
(g6
tRp3123
g1506
F1
ss(g1923
tp3124
g1
(g6
tRp3125
g2931
F1
ss(g1785
g1039
tp3126
g1
(g6
tRp3127
g1042
F1
ss(g546
tp3128
g1
(g6
tRp3129
g2360
F1
ss(VTheir
p3130
tp3131
g1
(g6
tRp3132
g1637
F1
ss(g1439
g1442
tp3133
g1
(g6
tRp3134
g1366
F1
ss(g2472
tp3135
g1
(g6
tRp3136
g2874
F1
ss(Vgot
p3137
tp3138
g1
(g6
tRp3139
Vto
p3140
F1
ss(g612
g1340
tp3141
g1
(g6
tRp3142
g341
F1
ss(g1350
tp3143
g1
(g6
tRp3144
g1353
F1
ss(g3047
tp3145
g1
(g6
tRp3146
g1013
F1
ss(Vused
p3147
tp3148
g1
(g6
tRp3149
VSerious
p3150
F0.5
sg2120
F0.5
ss(g308
g311
tp3151
g1
(g6
tRp3152
g42
F1
ss(g2602
g2605
tp3153
g1
(g6
tRp3154
g2880
F1
ss(g1291
g289
tp3155
g1
(g6
tRp3156
Vhell
p3157
F0.5
sg290
F0.5
ss(g1892
g1128
tp3158
g1
(g6
tRp3159
g1131
F1
ss(g2570
tp3160
g1
(g6
tRp3161
g2571
F1
ss(g1711
tp3162
g1
(g6
tRp3163
g198
F1
ss(g41
Vbeen
p3164
tp3165
g1
(g6
tRp3166
g1381
F1
ss(g1456
tp3167
g1
(g6
tRp3168
Vand
p3169
F1
ss(g910
tp3170
g1
(g6
tRp3171
g1900
F1
ss(g817
tp3172
g1
(g6
tRp3173
g2840
F1
ss(g350
tp3174
g1
(g6
tRp3175
g353
F1
ss(g1209
tp3176
g1
(g6
tRp3177
g1507
F0.5
sVjust
p3178
F0.5
ss(g447
g450
tp3179
g1
(g6
tRp3180
g558
F1
ss(g1047
g613
tp3181
g1
(g6
tRp3182
g2402
F1
ss(g2472
g2874
tp3183
g1
(g6
tRp3184
g2682
F1
ss(g599
g2902
tp3185
g1
(g6
tRp3186
S''
F1
ss(g1463
VAnd
p3187
tp3188
g1
(g6
tRp3189
g2882
F1
ss(g2088
g1318
tp3190
g1
(g6
tRp3191
g1319
F1
ss(g2151
Vhow
p3192
tp3193
g1
(g6
tRp3194
g2254
F1
ss(Vit
p3195
g45
tp3196
g1
(g6
tRp3197
g2002
F1
ss(g577
Vkids
p3198
tp3199
g1
(g6
tRp3200
g254
F1
ss(Vhe
p3201
Vprobably
p3202
tp3203
g1
(g6
tRp3204
g3050
F1
ss(Vstuff
p3205
g2835
tp3206
g1
(g6
tRp3207
g1432
F1
ss(g2120
tp3208
g1
(g6
tRp3209
Vand
p3210
F1
ss(g1048
tp3211
g1
(g6
tRp3212
g2456
F0.59999999999999998
sg64
F0.40000000000000002
ss(g2961
tp3213
g1
(g6
tRp3214
g2689
F1
ss(g2574
tp3215
g1
(g6
tRp3216
S''
F1
ss(g2623
g2626
tp3217
g1
(g6
tRp3218
g947
F1
ss(g2130
tp3219
g1
(g6
tRp3220
g164
F1
ss(g2850
tp3221
g1
(g6
tRp3222
g1538
F1
ss(g345
g380
tp3223
g1
(g6
tRp3224
S''
F1
ss(Vthreads
p3225
g911
tp3226
g1
(g6
tRp3227
g912
F1
ss(g2708
tp3228
g1
(g6
tRp3229
g194
F1
ss(g1164
g1167
tp3230
g1
(g6
tRp3231
Vtranslator
p3232
F1
ss(g97
tp3233
g1
(g6
tRp3234
g98
F1
ss(g851
g1813
tp3235
g1
(g6
tRp3236
g2695
F1
ss(g1251
g652
tp3237
g1
(g6
tRp3238
g653
F1
ss(g758
g106
tp3239
g1
(g6
tRp3240
S''
F1
ss(g1218
g1221
tp3241
g1
(g6
tRp3242
S''
F1
ss(g2895
tp3243
g1
(g6
tRp3244
S''
F0.10000000000000001
sg1665
F0.10000000000000001
sg159
F0.10000000000000001
sg1200
F0.10000000000000001
sg1552
F0.10000000000000001
sg9
F0.10000000000000001
sg443
F0.10000000000000001
sg2138
F0.10000000000000001
sg2098
F0.20000000000000001
ss(g2198
tp3245
g1
(g6
tRp3246
g1731
F1
ss(g2931
g2934
tp3247
g1
(g6
tRp3248
g1307
F1
ss(g1131
g354
tp3249
g1
(g6
tRp3250
g357
F1
ss(g831
g834
tp3251
g1
(g6
tRp3252
g2966
F1
ss(g860
g863
tp3253
g1
(g6
tRp3254
g2422
F1
ss(VSeems
p3255
g1439
tp3256
g1
(g6
tRp3257
g1442
F1
ss(g2323
Ventirely
p3258
tp3259
g1
(g6
tRp3260
Vthat
p3261
F1
ss(g2531
g1567
tp3262
g1
(g6
tRp3263
g1568
F1
ss(g379
Vconfusing
p3264
tp3265
g1
(g6
tRp3266
S''
F1
ss(g1210
g1213
tp3267
g1
(g6
tRp3268
g2370
F1
ss(Vthe
p3269
g1283
tp3270
g1
(g6
tRp3271
g1284
F1
ss(g1433
g185
tp3272
g1
(g6
tRp3273
g188
F1
ss(g1691
tp3274
g1
(g6
tRp3275
S''
F0.5
sVon
p3276
F0.5
ss(g2150
g3080
tp3277
g1
(g6
tRp3278
g3081
F0.5
sVobviously
p3279
F0.5
ss(g678
g731
tp3280
g1
(g6
tRp3281
g340
F1
ss(Vi
g1033
tp3282
g1
(g6
tRp3283
Vfeet
p3284
F1
ss(S''
tp3285
g1
(g6
tRp3286
S''
F0
sVWhat
p3287
F0.013043478260869565
sVMadoka
p3288
F0.0086956521739130436
sVAlso,
p3289
F0.0086956521739130436
sVjust
p3290
F0.0086956521739130436
sg3255
F0.0086956521739130436
sg1296
F0.0086956521739130436
sg2091
F0.0086956521739130436
sVFull
p3291
F0.0086956521739130436
sg2969
F0.0086956521739130436
sg665
F0.0086956521739130436
sg699
F0.0086956521739130436
sVShit,
p3292
F0.0086956521739130436
sg1946
F0.0086956521739130436
sg2868
F0.0086956521739130436
sg2524
F0.0086956521739130436
sg331
F0.0086956521739130436
sg1502
F0.0086956521739130436
sg465
F0.0086956521739130436
sg90
F0.013043478260869565
sg1591
F0.0086956521739130436
sg1428
F0.0086956521739130436
sg1064
F0.0086956521739130436
sg1893
F0.013043478260869565
sg877
F0.0086956521739130436
sVSad
p3293
F0.0086956521739130436
sg1728
F0.0086956521739130436
sg2785
F0.0086956521739130436
sg1210
F0.0086956521739130436
sVPic
p3294
F0.0086956521739130436
sg906
F0.0086956521739130436
sg97
F0.0086956521739130436
sVsome
p3295
F0.0086956521739130436
sg1905
F0.0086956521739130436
sVNext
p3296
F0.017391304347826087
sg73
F0.0086956521739130436
sg2158
F0.0086956521739130436
sg1878
F0.0086956521739130436
sg534
F0.0086956521739130436
sVwhat
p3297
F0.0086956521739130436
sg396
F0.0086956521739130436
sg2087
F0.013043478260869565
sg1516
F0.0086956521739130436
sg2390
F0.0086956521739130436
sg744
F0.0086956521739130436
sVThis
p3298
F0.017391304347826087
sVSure
p3299
F0.0086956521739130436
sVOpinion
p3300
F0.0086956521739130436
sg2532
F0.013043478260869565
sg1251
F0.0086956521739130436
sg2345
F0.0086956521739130436
sg219
F0.0086956521739130436
sg643
F0.0086956521739130436
sVCompared
p3301
F0.0086956521739130436
sVHer
p3302
F0.0086956521739130436
sg1627
F0.0086956521739130436
sg126
F0.0086956521739130436
sg1769
F0.0086956521739130436
sg3130
F0.0086956521739130436
sg2233
F0.0086956521739130436
sg3057
F0.0086956521739130436
sg2449
F0.0086956521739130436
sV"
F0.013043478260869565
sVnext
p3303
F0.0086956521739130436
sg1478
F0.0086956521739130436
sg2307
F0.0086956521739130436
sg3005
F0.0086956521739130436
sg2778
F0.0086956521739130436
sVSo
p3304
F0.021739130434782608
sg1964
F0.0086956521739130436
sg286
F0.0086956521739130436
sg1027
F0.0086956521739130436
sVwait,
p3305
F0.0086956521739130436
sg568
F0.0086956521739130436
sVHe's
p3306
F0.0086956521739130436
sg2996
F0.0086956521739130436
sg983
F0.017391304347826087
sVBetter
p3307
F0.0086956521739130436
sVHow
p3308
F0.0086956521739130436
sg2446
F0.0086956521739130436
sg358
F0.0086956521739130436
sVYou
p3309
F0.013043478260869565
sg1692
F0.0086956521739130436
sg627
F0.0086956521739130436
sVOh
p3310
F0.0086956521739130436
sg270
F0.0086956521739130436
sg1288
F0.0086956521739130436
sg2961
F0.0086956521739130436
sg2410
F0.0086956521739130436
sg1205
F0.0086956521739130436
sVI
F0.069565217391304349
sg735
F0.0086956521739130436
sVThe
p3311
F0.0086956521739130436
sVi
F0.0086956521739130436
sVIs
p3312
F0.0086956521739130436
sg1401
F0.017391304347826087
sVAs
p3313
F0.0086956521739130436
sg1704
F0.0086956521739130436
sVthe
p3314
F0.0086956521739130436
sg2434
F0.0086956521739130436
ss(g1042
g388
tp3315
g1
(g6
tRp3316
g391
F1
ss(g1692
g1695
tp3317
g1
(g6
tRp3318
S''
F1
ss(g546
g2360
tp3319
g1
(g6
tRp3320
g2200
F1
ss(g2496
tp3321
g1
(g6
tRp3322
S''
F0.33333333333333331
sg1621
F0.33333333333333331
sVposture
p3323
F0.33333333333333331
ss(g940
g938
tp3324
g1
(g6
tRp3325
g2508
F1
ss(g1705
tp3326
g1
(g6
tRp3327
g2581
F0.5
sg1708
F0.5
ss(Va
g2499
tp3328
g1
(g6
tRp3329
Vof
p3330
F1
ss(g3042
tp3331
g1
(g6
tRp3332
S''
F0.5
sVthat
p3333
F0.5
ss(g1515
g2228
tp3334
g1
(g6
tRp3335
g2515
F1
ss(g3202
g3050
tp3336
g1
(g6
tRp3337
g2544
F1
ss(VIt
Vwas
p3338
tp3339
g1
(g6
tRp3340
g2507
F1
ss(g1775
g1792
tp3341
g1
(g6
tRp3342
Vlike
p3343
F1
ss(g1610
g3195
tp3344
g1
(g6
tRp3345
g45
F1
ss(g3119
g1854
tp3346
g1
(g6
tRp3347
g1146
F1
ss(g1976
g2812
tp3348
g1
(g6
tRp3349
g2813
F1
ss(g42
tp3350
g1
(g6
tRp3351
g314
F0.5
sVthink)
p3352
F0.5
ss(g290
g233
tp3353
g1
(g6
tRp3354
g234
F1
ss(g1892
tp3355
g1
(g6
tRp3356
g1128
F1
ss(g34
g930
tp3357
g1
(g6
tRp3358
S''
F1
ss(g1118
g542
tp3359
g1
(g6
tRp3360
g543
F1
ss(g2418
g2421
tp3361
g1
(g6
tRp3362
S''
F1
ss(g864
tp3363
g1
(g6
tRp3364
Va
F1
ss(g3303
tp3365
g1
(g6
tRp3366
g1324
F1
ss(g2660
g547
tp3367
g1
(g6
tRp3368
g550
F1
ss(g1889
g1892
tp3369
g1
(g6
tRp3370
g1128
F1
ss(Vit
p3371
g41
tp3372
g1
(g6
tRp3373
g3164
F1
ss(g1035
tp3374
g1
(g6
tRp3375
g1038
F1
ss(g2043
tp3376
g1
(g6
tRp3377
Vticket
p3378
F1
ss(g1613
tp3379
g1
(g6
tRp3380
S''
F1
ss(g435
g1359
tp3381
g1
(g6
tRp3382
g1389
F1
ss(g1699
tp3383
g1
(g6
tRp3384
Vcorrecting
p3385
F1
ss(g509
tp3386
g1
(g6
tRp3387
g510
F1
ss(g1007
g1716
tp3388
g1
(g6
tRp3389
S''
F1
ss(g2273
tp3390
g1
(g6
tRp3391
g117
F0.40000000000000002
sg1292
F0.59999999999999998
ss(g876
g2205
tp3392
g1
(g6
tRp3393
g793
F1
ss(Vhell
p3394
g1230
tp3395
g1
(g6
tRp3396
g526
F1
ss(g1230
g526
tp3397
g1
(g6
tRp3398
g529
F1
ss(g3298
tp3399
g1
(g6
tRp3400
S''
F0.625
sg660
F0.375
ss(g362
g1989
tp3401
g1
(g6
tRp3402
g1992
F1
ss(g2059
g147
tp3403
g1
(g6
tRp3404
g1598
F1
ss(g2087
tp3405
g1
(g6
tRp3406
g2088
F0.5
sVjust
p3407
F0.5
ss(g1222
tp3408
g1
(g6
tRp3409
g1119
F1
ss(g2498
tp3410
g1
(g6
tRp3411
g1512
F0.40000000000000002
sg2792
F0.59999999999999998
ss(g1905
tp3412
g1
(g6
tRp3413
g1906
F1
ss(g1554
g1405
tp3414
g1
(g6
tRp3415
g1406
F1
ss(g817
g2840
tp3416
g1
(g6
tRp3417
Vas
p3418
F1
ss(g2144
g2147
tp3419
g1
(g6
tRp3420
g3027
F1
ss(g1557
tp3421
g1
(g6
tRp3422
g1558
F1
ss(Vmore
p3423
Vlike
p3424
tp3425
g1
(g6
tRp3426
Va
F1
ss(Vthey
p3427
g334
tp3428
g1
(g6
tRp3429
g1445
F1
ss(g1100
g1275
tp3430
g1
(g6
tRp3431
S''
F1
ss(g485
g488
tp3432
g1
(g6
tRp3433
g2889
F1
ss(g340
g2468
tp3434
g1
(g6
tRp3435
Vtry
p3436
F1
ss(g1831
g988
tp3437
g1
(g6
tRp3438
g991
F1
ss(Vdiscarded
p3439
g2788
tp3440
g1
(g6
tRp3441
g2791
F1
ss(g42
g314
tp3442
g1
(g6
tRp3443
g2506
F1
ss(g1993
tp3444
g1
(g6
tRp3445
g417
F1
ss(Vwith
p3446
g1196
tp3447
g1
(g6
tRp3448
g1199
F1
ss(g3210
g1363
tp3449
g1
(g6
tRp3450
g1496
F1
ss(g1409
Vis
p3451
tp3452
g1
(g6
tRp3453
Vjust
p3454
F1
ss(g121
tp3455
g1
(g6
tRp3456
g1101
F1
ss(Vthat
p3457
g730
tp3458
g1
(g6
tRp3459
g621
F1
ss(g3164
g1381
tp3460
g1
(g6
tRp3461
S''
F1
ss(g608
tp3462
g1
(g6
tRp3463
g578
F1
ss(g974
g518
tp3464
g1
(g6
tRp3465
g519
F1
ss(g779
g505
tp3466
g1
(g6
tRp3467
g508
F1
ss(g2508
g2511
tp3468
g1
(g6
tRp3469
S''
F1
ss(g644
tp3470
g1
(g6
tRp3471
g2907
F0.25
sg1164
F0.25
sVMaster
p3472
F0.25
sg647
F0.25
ss(g3036
Vabout
p3473
tp3474
g1
(g6
tRp3475
Vthe
p3476
F1
ss(g41
tp3477
g1
(g6
tRp3478
g3164
F1
ss(g1554
tp3479
g1
(g6
tRp3480
g1405
F1
ss(g1363
g1496
tp3481
g1
(g6
tRp3482
g1499
F1
ss(g605
g609
tp3483
g1
(g6
tRp3484
g679
F1
ss(g721
g169
tp3485
g1
(g6
tRp3486
g35
F1
ss(g1397
tp3487
g1
(g6
tRp3488
g1400
F1
ss(g497
tp3489
g1
(g6
tRp3490
g500
F1
ss(g3296
tp3491
g1
(g6
tRp3492
g485
F0.33333333333333331
sg788
F0.33333333333333331
sVtime
p3493
F0.33333333333333331
ss(g1840
Vup
p3494
tp3495
g1
(g6
tRp3496
g1776
F1
ss(g825
g1176
tp3497
g1
(g6
tRp3498
g1177
F1
ss(g2508
tp3499
g1
(g6
tRp3500
g2511
F0.5
sg2375
F0.5
ss(g2242
g13
tp3501
g1
(g6
tRp3502
g16
F1
ss(g1307
tp3503
g1
(g6
tRp3504
VI
F1
ss(g3314
g3205
tp3505
g1
(g6
tRp3506
g2835
F1
ss(Va
g2059
tp3507
g1
(g6
tRp3508
g147
F0.5
sVin
p3509
F0.5
ss(g72
g82
tp3510
g1
(g6
tRp3511
g2195
F0.5
sg50
F0.5
ss(g1070
tp3512
g1
(g6
tRp3513
S''
F1
ss(Vtranslations
p3514
g1295
tp3515
g1
(g6
tRp3516
g117
F1
ss(g729
tp3517
g1
(g6
tRp3518
g1977
F1
ss(g562
g3137
tp3519
g1
(g6
tRp3520
g3140
F1
ss(g894
g1691
tp3521
g1
(g6
tRp3522
g3276
F1
ss(g1456
g3169
tp3523
g1
(g6
tRp3524
g1360
F1
ss(g1486
tp3525
g1
(g6
tRp3526
g2329
F0.5
sVhere
p3527
F0.5
ss(Vthe
p3528
g2852
tp3529
g1
(g6
tRp3530
g3333
F1
ss(g2002
Vhe's
p3531
tp3532
g1
(g6
tRp3533
g638
F1
ss(g651
g1971
tp3534
g1
(g6
tRp3535
Vgirls
p3536
F1
ss(g3294
tp3537
g1
(g6
tRp3538
g2766
F1
ss(Vany
p3539
Vof
p3540
tp3541
g1
(g6
tRp3542
Vthe
p3543
F1
ss(g2934
g1307
tp3544
g1
(g6
tRp3545
VI
F1
ss(g3305
tp3546
g1
(g6
tRp3547
Vare
p3548
F1
ss(g3303
g1324
tp3549
g1
(g6
tRp3550
g1327
F1
ss(g529
tp3551
g1
(g6
tRp3552
S''
F0.33333333333333331
sg1786
F0.33333333333333331
sg257
F0.33333333333333331
ss(g526
g529
tp3553
g1
(g6
tRp3554
S''
F1
ss(g1260
g1263
tp3555
g1
(g6
tRp3556
g53
F1
ss(g3312
g68
tp3557
g1
(g6
tRp3558
g69
F1
ss(g1989
g1992
tp3559
g1
(g6
tRp3560
g2907
F1
ss(g2605
g2880
tp3561
g1
(g6
tRp3562
g725
F1
ss(g2617
tp3563
g1
(g6
tRp3564
Vwas
p3565
F0.5
sg870
F0.5
ss(g2330
g2333
tp3566
g1
(g6
tRp3567
Vthe
p3568
F1
ss(g176
tp3569
g1
(g6
tRp3570
g1965
F0.066666666666666666
sg2286
F0.066666666666666666
sg3147
F0.066666666666666666
sg780
F0.066666666666666666
sg2245
F0.066666666666666666
sg1534
F0.066666666666666666
sg2867
F0.066666666666666666
sg2208
F0.066666666666666666
sg2588
F0.066666666666666666
sg2068
F0.066666666666666666
sg3137
F0.066666666666666666
sg843
F0.066666666666666666
sg3202
F0.066666666666666666
sg2660
F0.066666666666666666
sg17
F0.066666666666666666
ss(g3385
Vit,
p3571
tp3572
g1
(g6
tRp3573
g2338
F1
ss(g611
g1557
tp3574
g1
(g6
tRp3575
g1558
F1
ss(g2524
tp3576
g1
(g6
tRp3577
g2191
F1
ss(g2130
g164
tp3578
g1
(g6
tRp3579
g165
F1
ss(g1418
g2177
tp3580
g1
(g6
tRp3581
g2180
F1
ss(g3198
g254
tp3582
g1
(g6
tRp3583
g210
F1
ss(g911
tp3584
g1
(g6
tRp3585
g912
F0.5
sg2473
F0.5
ss(Vof
p3586
g3042
tp3587
g1
(g6
tRp3588
S''
F1
ss(g717
tp3589
g1
(g6
tRp3590
g720
F1
ss(g2847
g2851
tp3591
g1
(g6
tRp3592
S''
F1
ss(g867
g1145
tp3593
g1
(g6
tRp3594
g2039
F1
ss(g427
g430
tp3595
g1
(g6
tRp3596
VI
F1
ss(g2074
g2077
tp3597
g1
(g6
tRp3598
g1453
F1
ss(Vshit
p3599
g2782
tp3600
g1
(g6
tRp3601
g1661
F1
ss(g148
g3394
tp3602
g1
(g6
tRp3603
g1230
F1
ss(g970
tp3604
g1
(g6
tRp3605
g523
F0.5
sg971
F0.5
ss(g2187
tp3606
g1
(g6
tRp3607
Vand
p3608
F0.5
sS''
F0.5
ss(g3313
tp3609
g1
(g6
tRp3610
g392
F1
ss(g1519
tp3611
g1
(g6
tRp3612
g1487
F1
ss(Va
g2173
tp3613
g1
(g6
tRp3614
g2174
F1
ss(g917
g920
tp3615
g1
(g6
tRp3616
g554
F1
ss(g1591
tp3617
g1
(g6
tRp3618
g1592
F1
ss(Vthe
p3619
Vbus,
p3620
tp3621
g1
(g6
tRp3622
Vso
p3623
F1
ss(g1787
tp3624
g1
(g6
tRp3625
g436
F1
ss(g110
g113
tp3626
g1
(g6
tRp3627
g2935
F1
ss(g177
g180
tp3628
g1
(g6
tRp3629
g859
F1
ss(Vfucks
p3630
tp3631
g1
(g6
tRp3632
g3539
F1
ss(g367
tp3633
g1
(g6
tRp3634
g370
F1
ss(g1367
Vbest
p3635
tp3636
g1
(g6
tRp3637
Vgirl
p3638
F1
ss(g1666
g1669
tp3639
g1
(g6
tRp3640
g2744
F1
ss(g118
g121
tp3641
g1
(g6
tRp3642
g1101
F1
ss(g1364
tp3643
g1
(g6
tRp3644
g2633
F1
ss(g1626
Vgonna
p3645
tp3646
g1
(g6
tRp3647
g2350
F1
ss(g232
tp3648
g1
(g6
tRp3649
g1334
F1
ss(g1978
g1981
tp3650
g1
(g6
tRp3651
Vwhen
p3652
F1
ss(Vcan't
p3653
Vdo
p3654
tp3655
g1
(g6
tRp3656
g1666
F1
ss(g1648
tp3657
g1
(g6
tRp3658
g478
F0.16666666666666666
sg1106
F0.16666666666666666
sg1530
F0.16666666666666666
sg86
F0.16666666666666666
sg2801
F0.16666666666666666
sg1649
F0.16666666666666666
ss(Vso
p3659
g3201
tp3660
g1
(g6
tRp3661
g3202
F1
ss(g616
tp3662
g1
(g6
tRp3663
g2304
F1
ss(g1274
tp3664
g1
(g6
tRp3665
Va
F0.25
sg1392
F0.25
sg3026
F0.25
sVhim
p3666
F0.25
ss(g733
Va
tp3667
g1
(g6
tRp3668
g1834
F1
ss(g2435
tp3669
g1
(g6
tRp3670
g2438
F1
ss(g563
tp3671
g1
(g6
tRp3672
g564
F1
ss(g1119
g1122
tp3673
g1
(g6
tRp3674
g1235
F1
ss(g3531
g638
tp3675
g1
(g6
tRp3676
g639
F1
ss(g2835
g1432
tp3677
g1
(g6
tRp3678
g1433
F1
ss(g3289
tp3679
g1
(g6
tRp3680
g2108
F1
ss(g391
g1256
tp3681
g1
(g6
tRp3682
S''
F1
ss(g227
g2017
tp3683
g1
(g6
tRp3684
g2020
F1
ss(g1933
g307
tp3685
g1
(g6
tRp3686
g308
F1
ss(g1599
g1602
tp3687
g1
(g6
tRp3688
g2269
F1
ss(g1012
g1081
tp3689
g1
(g6
tRp3690
g1082
F1
ss(g265
tp3691
g1
(g6
tRp3692
g266
F1
ss(g923
tp3693
g1
(g6
tRp3694
g1259
F1
ss(g853
g856
tp3695
g1
(g6
tRp3696
S''
F1
ss(g269
Vand
p3697
tp3698
g1
(g6
tRp3699
g1370
F1
ss(g595
tp3700
g1
(g6
tRp3701
g596
F1
ss(g1494
tp3702
g1
(g6
tRp3703
g2476
F1
ss(g1263
g53
tp3704
g1
(g6
tRp3705
g54
F1
ss(Veven
p3706
g1976
tp3707
g1
(g6
tRp3708
g2812
F0.5
sg3424
F0.5
ss(g2410
tp3709
g1
(g6
tRp3710
g2242
F1
ss(g2255
tp3711
g1
(g6
tRp3712
g1463
F0.13333333333333333
sg1415
F0.13333333333333333
sg311
F0.13333333333333333
sg245
F0.13333333333333333
sg821
F0.13333333333333333
sg1607
F0.20000000000000001
sg2922
F0.13333333333333333
ss(g2774
g814
tp3713
g1
(g6
tRp3714
g817
F1
ss(g724
g2867
tp3715
g1
(g6
tRp3716
Vto
p3717
F1
ss(g1312
g1315
tp3718
g1
(g6
tRp3719
S''
F1
ss(Vthe
p3720
g2850
tp3721
g1
(g6
tRp3722
g1538
F1
ss(g2871
g2068
tp3723
g1
(g6
tRp3724
g2071
F1
ss(g2626
g947
tp3725
g1
(g6
tRp3726
g948
F1
ss(g745
tp3727
g1
(g6
tRp3728
g1356
F0.5
sg748
F0.5
ss(g1038
Vbut
p3729
tp3730
g1
(g6
tRp3731
Vsome
p3732
F1
ss(g1175
tp3733
g1
(g6
tRp3734
g889
F0.5
sg1506
F0.5
ss(g1368
tp3735
g1
(g6
tRp3736
g2923
F1
ss(g1920
g1923
tp3737
g1
(g6
tRp3738
g2931
F1
ss(g3308
Vare
p3739
tp3740
g1
(g6
tRp3741
g615
F1
ss(g695
g698
tp3742
g1
(g6
tRp3743
g1717
F1
ss(g1968
g2818
tp3744
g1
(g6
tRp3745
g692
F1
ss(g3043
tp3746
g1
(g6
tRp3747
Vrelated
p3748
F1
ss(g1516
g1519
tp3749
g1
(g6
tRp3750
g1487
F1
ss(g1337
g759
tp3751
g1
(g6
tRp3752
g762
F1
ss(g3169
g1360
tp3753
g1
(g6
tRp3754
g1660
F1
ss(g1610
tp3755
g1
(g6
tRp3756
g3195
F0.5
sg135
F0.5
ss(g821
tp3757
g1
(g6
tRp3758
g822
F1
ss(g2163
g2166
tp3759
g1
(g6
tRp3760
g3457
F1
ss(g582
g585
tp3761
g1
(g6
tRp3762
g2094
F1
ss(g2120
g3210
tp3763
g1
(g6
tRp3764
g1363
F1
ss(g2225
tp3765
g1
(g6
tRp3766
g2465
F1
ss(g707
g1552
tp3767
g1
(g6
tRp3768
S''
F1
ss(g2255
g2922
tp3769
g1
(g6
tRp3770
g46
F1
ss(g1573
tp3771
g1
(g6
tRp3772
g818
F1
ss(g2403
tp3773
g1
(g6
tRp3774
S''
F1
ss(g762
g808
tp3775
g1
(g6
tRp3776
S''
F1
ss(g615
tp3777
g1
(g6
tRp3778
g600
F1
ss(g2261
tp3779
g1
(g6
tRp3780
g1146
F0.20000000000000001
sg3418
F0.20000000000000001
sg1270
F0.20000000000000001
sg586
F0.20000000000000001
sg959
F0.20000000000000001
ss(g3187
g2882
tp3781
g1
(g6
tRp3782
g2265
F1
ss(g3494
g1776
tp3783
g1
(g6
tRp3784
g1777
F1
ss(g3630
g3539
tp3785
g1
(g6
tRp3786
g3540
F1
ss(g2068
g2071
tp3787
g1
(g6
tRp3788
g2606
F1
ss(g1924
g77
tp3789
g1
(g6
tRp3790
g78
F1
ss(g2647
g1050
tp3791
g1
(g6
tRp3792
g1585
F1
ss(g729
g1977
tp3793
g1
(g6
tRp3794
g1978
F1
ss(g664
tp3795
g1
(g6
tRp3796
S''
F1
ss(g934
g1047
tp3797
g1
(g6
tRp3798
g613
F1
ss(g1510
tp3799
g1
(g6
tRp3800
g2280
F1
ss(g2359
g1799
tp3801
g1
(g6
tRp3802
S''
F1
ss(g2446
tp3803
g1
(g6
tRp3804
g978
F1
ss(g822
g825
tp3805
g1
(g6
tRp3806
g1176
F1
ss(g1792
g3343
tp3807
g1
(g6
tRp3808
Vthe
p3809
F1
ss(Vyou
p3810
g721
tp3811
g1
(g6
tRp3812
g169
F1
ss(g695
tp3813
g1
(g6
tRp3814
g1598
F0.125
sVI
F0.125
sg1851
F0.125
sg3732
F0.125
sg3371
F0.125
sg698
F0.125
sg947
F0.125
sg1711
F0.125
ss(g1558
g202
tp3815
g1
(g6
tRp3816
g205
F1
ss(g2922
g46
tp3817
g1
(g6
tRp3818
g49
F1
ss(g3311
g2113
tp3819
g1
(g6
tRp3820
g2114
F1
ss(g1755
g2545
tp3821
g1
(g6
tRp3822
g2136
F1
ss(g3137
g3140
tp3823
g1
(g6
tRp3824
Vthe
p3825
F1
ss(g1652
tp3826
g1
(g6
tRp3827
g1653
F1
ss(Va
g60
tp3828
g1
(g6
tRp3829
VI
F1
ss(g2292
tp3830
g1
(g6
tRp3831
Va
F0.33333333333333331
sg1021
F0.33333333333333331
sVlicensing
p3832
F0.33333333333333331
ss(g601
tp3833
g1
(g6
tRp3834
g604
F1
ss(g2791
g1573
tp3835
g1
(g6
tRp3836
g818
F1
ss(g1445
g3599
tp3837
g1
(g6
tRp3838
g2782
F1
ss(g1287
tp3839
g1
(g6
tRp3840
g2713
F1
ss(g946
g404
tp3841
g1
(g6
tRp3842
g407
F1
ss(g810
g813
tp3843
g1
(g6
tRp3844
g2473
F1
ss(g273
g181
tp3845
g1
(g6
tRp3846
g182
F1
ss(g2387
Vuse
p3847
tp3848
g1
(g6
tRp3849
g2484
F1
ss(Va
g2501
tp3850
g1
(g6
tRp3851
g2685
F1
ss(g2304
Va
tp3852
g1
(g6
tRp3853
g2499
F1
ss(g2067
tp3854
g1
(g6
tRp3855
g2611
F1
ss(g680
tp3856
g1
(g6
tRp3857
S''
F1
ss(g2199
tp3858
g1
(g6
tRp3859
g2954
F1
ss(g338
g1446
tp3860
g1
(g6
tRp3861
g1447
F1
ss(g2996
tp3862
g1
(g6
tRp3863
g1742
F0.5
sg1738
F0.5
ss(g712
g715
tp3864
g1
(g6
tRp3865
g2705
F1
ss(g1975
g3026
tp3866
g1
(g6
tRp3867
g39
F1
ss(g2003
tp3868
g1
(g6
tRp3869
g57
F1
ss(g1446
tp3870
g1
(g6
tRp3871
g1447
F1
ss(g2151
tp3872
g1
(g6
tRp3873
g3284
F0.25
sg3192
F0.25
sg330
F0.25
sg965
F0.25
ss(g574
g577
tp3874
g1
(g6
tRp3875
g3198
F0.5
sg1491
F0.5
ss(g322
tp3876
g1
(g6
tRp3877
g325
F1
ss(g608
g578
tp3878
g1
(g6
tRp3879
S''
F1
ss(g1496
g1499
tp3880
g1
(g6
tRp3881
g2048
F1
ss(g1429
g591
tp3882
g1
(g6
tRp3883
g592
F1
ss(g569
g572
tp3884
g1
(g6
tRp3885
g174
F1
ss(g1000
g726
tp3886
g1
(g6
tRp3887
S''
F1
ss(g89
tp3888
g1
(g6
tRp3889
g2617
F1
ss(VYou
g2355
tp3890
g1
(g6
tRp3891
g2356
F1
ss(g2191
g2194
tp3892
g1
(g6
tRp3893
g1464
F1
ss(g954
tp3894
g1
(g6
tRp3895
Va
F0.083333333333333329
sg2531
F0.055555555555555552
sg327
F0.055555555555555552
sg2612
F0.055555555555555552
sg1802
F0.055555555555555552
sg2756
F0.055555555555555552
sg669
F0.083333333333333329
sg321
F0.055555555555555552
sg2605
F0.055555555555555552
sg3394
F0.055555555555555552
sg2847
F0.22222222222222221
sg2798
F0.055555555555555552
sg1247
F0.055555555555555552
sg89
F0.055555555555555552
ss(g2804
tp3896
g1
(g6
tRp3897
S''
F1
ss(g307
tp3898
g1
(g6
tRp3899
g2102
F0.25
sg308
F0.25
sg2812
F0.25
sg3424
F0.25
ss(g3313
g392
tp3900
g1
(g6
tRp3901
g393
F1
ss(Vcharacters
p3902
Vin
p3903
tp3904
g1
(g6
tRp3905
Vtheir
p3906
F1
ss(g1679
VI
tp3907
g1
(g6
tRp3908
g371
F0.5
sg2152
F0.5
ss(g1370
tp3909
g1
(g6
tRp3910
Vfan
p3911
F1
ss(g826
g829
tp3912
g1
(g6
tRp3913
S''
F1
ss(g1375
g1452
tp3914
g1
(g6
tRp3915
g2273
F1
ss(g3476
g2187
tp3916
g1
(g6
tRp3917
g3608
F1
ss(g856
tp3918
g1
(g6
tRp3919
S''
F1
ss(g3620
tp3920
g1
(g6
tRp3921
g3623
F1
ss(g1640
tp3922
g1
(g6
tRp3923
g2320
F0.33333333333333331
sg1759
F0.33333333333333331
sg229
F0.33333333333333331
ss(g94
g2417
tp3924
g1
(g6
tRp3925
g2418
F1
ss(g547
g550
tp3926
g1
(g6
tRp3927
g3659
F1
ss(g2868
g2871
tp3928
g1
(g6
tRp3929
g2068
F1
ss(g3436
Vsomething
p3930
tp3931
g1
(g6
tRp3932
g589
F1
ss(g750
g143
tp3933
g1
(g6
tRp3934
g146
F1
ss(g843
tp3935
g1
(g6
tRp3936
g122
F1
ss(g1878
tp3937
g1
(g6
tRp3938
g1482
F1
ss(g1243
g1246
tp3939
g1
(g6
tRp3940
g1377
F1
ss(g3825
g2917
tp3941
g1
(g6
tRp3942
S''
F1
ss(g1104
g1937
tp3943
g1
(g6
tRp3944
g3044
F1
ss(g2877
g2881
tp3945
g1
(g6
tRp3946
g2895
F1
ss(g2547
g678
tp3947
g1
(g6
tRp3948
g731
F1
ss(g765
tp3949
g1
(g6
tRp3950
g1460
F0.5
sVgoogle
p3951
F0.5
ss(g2852
g3333
tp3952
g1
(g6
tRp3953
g729
F1
ss(g1279
g1282
tp3954
g1
(g6
tRp3955
g860
F1
ss(Vreally
p3956
g2770
tp3957
g1
(g6
tRp3958
S''
F1
ss(g38
tp3959
g1
(g6
tRp3960
g1100
F1
ss(g2449
tp3961
g1
(g6
tRp3962
g2450
F1
ss(g1526
tp3963
g1
(g6
tRp3964
g2401
F1
ss(g779
tp3965
g1
(g6
tRp3966
g505
F1
ss(g740
tp3967
g1
(g6
tRp3968
g743
F1
ss(g3039
g1346
tp3969
g1
(g6
tRp3970
g223
F0.5
sg274
F0.5
ss(g715
g2705
tp3971
g1
(g6
tRp3972
g2708
F1
ss(g413
g416
tp3973
g1
(g6
tRp3974
g1425
F1
ss(V2
g228
tp3975
g1
(g6
tRp3976
g229
F1
ss(g2532
g1186
tp3977
g1
(g6
tRp3978
S''
F0.5
sg1187
F0.5
ss(g384
tp3979
g1
(g6
tRp3980
g387
F1
ss(g2521
tp3981
g1
(g6
tRp3982
g2734
F1
ss(g2172
tp3983
g1
(g6
tRp3984
g2518
F1
ss(g631
g634
tp3985
g1
(g6
tRp3986
g1093
F1
ss(g585
tp3987
g1
(g6
tRp3988
g2094
F0.5
sg572
F0.5
ss(g1288
g1291
tp3989
g1
(g6
tRp3990
g289
F1
ss(g1672
tp3991
g1
(g6
tRp3992
S''
F1
ss(g1330
tp3993
g1
(g6
tRp3994
g1331
F1
ss(g813
g2473
tp3995
g1
(g6
tRp3996
g523
F1
ss(g188
tp3997
g1
(g6
tRp3998
S''
F0.5
sg1610
F0.5
ss(g325
g553
tp3999
g1
(g6
tRp4000
g172
F1
ss(g1035
g1038
tp4001
g1
(g6
tRp4002
g3729
F1
ss(g3623
VI
tp4003
g1
(g6
tRp4004
Vcouldn't
p4005
F1
ss(g40
Vand
p4006
tp4007
g1
(g6
tRp4008
g1373
F1
ss(g1243
tp4009
g1
(g6
tRp4010
g1246
F1
ss(VRiko
p4011
Vpersona
p4012
tp4013
g1
(g6
tRp4014
Vto
p4015
F1
ss(Vuse
p4016
g4011
tp4017
g1
(g6
tRp4018
g4012
F1
ss(g624
g1888
tp4019
g1
(g6
tRp4020
g1889
F1
ss(g489
g492
tp4021
g1
(g6
tRp4022
Vfight
p4023
F1
ss(g613
g2402
tp4024
g1
(g6
tRp4025
g2403
F1
ss(g1488
VI
tp4026
g1
(g6
tRp4027
g2151
F1
ss(g147
g1598
tp4028
g1
(g6
tRp4029
g1599
F1
ss(g34
tp4030
g1
(g6
tRp4031
g930
F1
ss(g3047
g1013
tp4032
g1
(g6
tRp4033
S''
F1
ss(g249
g1993
tp4034
g1
(g6
tRp4035
g417
F1
ss(g155
g158
tp4036
g1
(g6
tRp4037
g2809
F1
ss(g2117
tp4038
g1
(g6
tRp4039
g1652
F0.5
sg1676
F0.5
ss(g3493
tp4040
g1
(g6
tRp4041
Vuse
p4042
F0.5
sg797
F0.5
ss(g2450
g1648
tp4043
g1
(g6
tRp4044
g1649
F1
ss(Vreally
p4045
tp4046
g1
(g6
tRp4047
S''
F0.20000000000000001
sg2655
F0.20000000000000001
sg2359
F0.20000000000000001
sg2770
F0.20000000000000001
sg2771
F0.20000000000000001
ss(g1369
g1831
tp4048
g1
(g6
tRp4049
g988
F1
ss(Vbreak
p4050
tp4051
g1
(g6
tRp4052
Vup
p4053
F1
ss(g2507
g447
tp4054
g1
(g6
tRp4055
g450
F1
ss(g1195
g842
tp4056
g1
(g6
tRp4057
g843
F0.5
sg2208
F0.5
ss(g455
g1134
tp4058
g1
(g6
tRp4059
g1260
F1
ss(g589
tp4060
g1
(g6
tRp4061
g3446
F1
ss(g1016
g1019
tp4062
g1
(g6
tRp4063
g1582
F1
ss(g1296
tp4064
g1
(g6
tRp4065
g1297
F1
ss(g3536
g1495
tp4066
g1
(g6
tRp4067
Vkilled
p4068
F1
ss(g1873
g237
tp4069
g1
(g6
tRp4070
g238
F1
ss(g125
tp4071
g1
(g6
tRp4072
g242
F0.5
sg2606
F0.5
ss(g543
g546
tp4073
g1
(g6
tRp4074
g2360
F1
ss(g1373
VI
tp4075
g1
(g6
tRp4076
g2154
F1
ss(VI
g901
tp4077
g1
(g6
tRp4078
g902
F1
ss(g3571
g2338
tp4079
g1
(g6
tRp4080
g1824
F1
ss(g1916
g2127
tp4081
g1
(g6
tRp4082
g337
F1
ss(g1495
g4068
tp4083
g1
(g6
tRp4084
S''
F1
ss(g2330
tp4085
g1
(g6
tRp4086
g2333
F1
ss(g2328
g2375
tp4087
g1
(g6
tRp4088
g2679
F1
ss(g1743
tp4089
g1
(g6
tRp4090
g1744
F1
ss(g1227
VI
tp4091
g1
(g6
tRp4092
g2914
F1
ss(g2047
g624
tp4093
g1
(g6
tRp4094
g1888
F1
ss(g3205
tp4095
g1
(g6
tRp4096
g2835
F1
ss(g2014
tp4097
g1
(g6
tRp4098
g716
F0.59999999999999998
sg1666
F0.40000000000000002
ss(g531
g175
tp4099
g1
(g6
tRp4100
g3653
F1
ss(g194
g197
tp4101
g1
(g6
tRp4102
g1239
F1
ss(g555
tp4103
g1
(g6
tRp4104
S''
F0.5
sg911
F0.5
ss(g1377
g1647
tp4105
g1
(g6
tRp4106
g3012
F1
ss(g3255
tp4107
g1
(g6
tRp4108
g1439
F1
ss(g1928
tp4109
g1
(g6
tRp4110
g1457
F0.029411764705882353
sg50
F0.029411764705882353
sg1547
F0.029411764705882353
sg966
F0.029411764705882353
sg920
F0.029411764705882353
sg1985
F0.029411764705882353
sg4016
F0.029411764705882353
sg116
F0.029411764705882353
sg1274
F0.044117647058823532
sg4023
F0.029411764705882353
sg1996
F0.029411764705882353
sV2
F0.029411764705882353
sg2441
F0.029411764705882353
sg1931
F0.044117647058823532
sVthem
p4111
F0.029411764705882353
sg2195
F0.044117647058823532
sg1934
F0.029411764705882353
sg3012
F0.029411764705882353
sg4050
F0.029411764705882353
sg1840
F0.029411764705882353
sg1933
F0.029411764705882353
sg1766
F0.029411764705882353
sg2074
F0.029411764705882353
sg1971
F0.029411764705882353
sg1932
F0.029411764705882353
sg1553
F0.029411764705882353
sg488
F0.029411764705882353
sg707
F0.029411764705882353
sg3436
F0.029411764705882353
sg2570
F0.029411764705882353
sg3825
F0.044117647058823532
sg1747
F0.029411764705882353
ss(g110
tp4112
g1
(g6
tRp4113
g113
F1
ss(g3056
g1362
tp4114
g1
(g6
tRp4115
g708
F1
ss(g411
g1473
tp4116
g1
(g6
tRp4117
g1529
F1
ss(g2462
g616
tp4118
g1
(g6
tRp4119
g2304
F1
ss(g834
g2966
tp4120
g1
(g6
tRp4121
g102
F1
ss(Vhe
p4122
g2245
tp4123
g1
(g6
tRp4124
g2248
F1
ss(g113
tp4125
g1
(g6
tRp4126
g2935
F1
ss(g1547
tp4127
g1
(g6
tRp4128
g251
F0.5
sg801
F0.5
ss(g2498
g2792
tp4129
g1
(g6
tRp4130
g2795
F0.5
sg2602
F0.5
ss(g3187
tp4131
g1
(g6
tRp4132
g202
F0.5
sg2882
F0.5
ss(Vthe
g2226
tp4133
g1
(g6
tRp4134
g2601
F1
ss(g81
g116
tp4135
g1
(g6
tRp4136
g689
F1
ss(g728
g3371
tp4137
g1
(g6
tRp4138
g41
F1
ss(g1660
g2062
tp4139
g1
(g6
tRp4140
S''
F1
ss(g1475
tp4141
g1
(g6
tRp4142
S''
F1
ss(g1981
tp4143
g1
(g6
tRp4144
g3652
F1
ss(Vto
g1934
tp4145
g1
(g6
tRp4146
g1961
F1
ss(g2500
tp4147
g1
(g6
tRp4148
g189
F0.5
sg1284
F0.5
ss(g3293
g2864
tp4149
g1
(g6
tRp4150
g724
F1
ss(g2356
g2359
tp4151
g1
(g6
tRp4152
g1799
F1
ss(g474
g477
tp4153
g1
(g6
tRp4154
g2798
F1
ss(g1460
g1463
tp4155
g1
(g6
tRp4156
g3187
F1
ss(g1808
tp4157
g1
(g6
tRp4158
g1330
F1
ss(g692
g1985
tp4159
g1
(g6
tRp4160
g1986
F1
ss(g44
g3832
tp4161
g1
(g6
tRp4162
S''
F1
ss(g2692
g2570
tp4163
g1
(g6
tRp4164
g2571
F1
ss(VI
g473
tp4165
g1
(g6
tRp4166
g474
F1
ss(g1200
tp4167
g1
(g6
tRp4168
g1201
F1
ss(Vbe
p4169
g1304
tp4170
g1
(g6
tRp4171
g1020
F1
ss(g2788
g2791
tp4172
g1
(g6
tRp4173
g1573
F0.5
sg1191
F0.5
ss(g2236
g2455
tp4174
g1
(g6
tRp4175
g1172
F1
ss(g2763
g1748
tp4176
g1
(g6
tRp4177
g1474
F1
ss(g78
tp4178
g1
(g6
tRp4179
g81
F1
ss(g2082
g1410
tp4180
g1
(g6
tRp4181
g1227
F1
ss(g2445
tp4182
g1
(g6
tRp4183
S''
F1
ss(g3951
tp4184
g1
(g6
tRp4185
S''
F1
ss(g3306
tp4186
g1
(g6
tRp4187
g1919
F1
ss(g2417
tp4188
g1
(g6
tRp4189
g2418
F1
ss(g4023
tp4190
g1
(g6
tRp4191
g1085
F1
ss(g1327
g1073
tp4192
g1
(g6
tRp4193
g1074
F1
ss(g2434
tp4194
g1
(g6
tRp4195
g2435
F1
ss(g1934
g1961
tp4196
g1
(g6
tRp4197
g1950
F1
ss(g337
g2130
tp4198
g1
(g6
tRp4199
g164
F1
ss(g1045
g1845
tp4200
g1
(g6
tRp4201
g874
F1
ss(g1699
g3385
tp4202
g1
(g6
tRp4203
g3571
F1
ss(g2177
g2180
tp4204
g1
(g6
tRp4205
g2329
F1
ss(g2124
g206
tp4206
g1
(g6
tRp4207
g209
F1
ss(g1287
g2713
tp4208
g1
(g6
tRp4209
S''
F1
ss(g303
g306
tp4210
g1
(g6
tRp4211
g2588
F1
ss(g4012
tp4212
g1
(g6
tRp4213
g4015
F1
ss(g3568
g2141
tp4214
g1
(g6
tRp4215
S''
F1
ss(g519
tp4216
g1
(g6
tRp4217
g522
F1
ss(g3140
g3825
tp4218
g1
(g6
tRp4219
g2917
F0.5
sg215
F0.5
ss(g295
g257
tp4220
g1
(g6
tRp4221
g258
F1
ss(g1676
g1679
tp4222
g1
(g6
tRp4223
VI
F1
ss(VNext
g788
tp4224
g1
(g6
tRp4225
g789
F1
ss(g3293
tp4226
g1
(g6
tRp4227
g2864
F1
ss(g1951
tp4228
g1
(g6
tRp4229
g1954
F1
ss(g905
g223
tp4230
g1
(g6
tRp4231
g224
F1
ss(g172
tp4232
g1
(g6
tRp4233
Vcouldn't
p4234
F1
ss(g3045
g2144
tp4235
g1
(g6
tRp4236
g2147
F1
ss(g843
g122
tp4237
g1
(g6
tRp4238
Va
F1
ss(g2935
g2938
tp4239
g1
(g6
tRp4240
g1123
F1
ss(g1530
tp4241
g1
(g6
tRp4242
g1533
F1
ss(g1064
tp4243
g1
(g6
tRp4244
g1065
F1
ss(g1324
g1327
tp4245
g1
(g6
tRp4246
g1073
F1
ss(g3150
tp4247
g1
(g6
tRp4248
g1523
F1
ss(g1945
g1088
tp4249
g1
(g6
tRp4250
g852
F1
ss(g264
Va
tp4251
g1
(g6
tRp4252
g2503
F1
ss(g2686
g2006
tp4253
g1
(g6
tRp4254
g2007
F1
ss(g1128
g1131
tp4255
g1
(g6
tRp4256
g354
F1
ss(g2166
tp4257
g1
(g6
tRp4258
Vnot
p4259
F0.25
sg1069
F0.25
sg1147
F0.25
sg3457
F0.25
ss(g2954
g1365
tp4260
g1
(g6
tRp4261
g2469
F1
ss(g1717
g1720
tp4262
g1
(g6
tRp4263
g3099
F1
ss(g2299
g1375
tp4264
g1
(g6
tRp4265
g1452
F1
ss(g750
tp4266
g1
(g6
tRp4267
g143
F1
ss(g393
Vi
tp4268
g1
(g6
tRp4269
g1033
F1
ss(g772
tp4270
g1
(g6
tRp4271
g605
F1
ss(g1154
g1506
tp4272
g1
(g6
tRp4273
g1507
F1
ss(g2187
g3608
tp4274
g1
(g6
tRp4275
g1368
F1
ss(g3378
g1859
tp4276
g1
(g6
tRp4277
g321
F1
ss(Vi
g581
tp4278
g1
(g6
tRp4279
g582
F1
ss(g222
tp4280
g1
(g6
tRp4281
g367
F1
ss(g1696
g1699
tp4282
g1
(g6
tRp4283
g3385
F1
ss(Vend
p4284
tp4285
g1
(g6
tRp4286
Vof
p4287
F1
ss(g937
g31
tp4288
g1
(g6
tRp4289
g34
F1
ss(g1946
g1949
tp4290
g1
(g6
tRp4291
g2747
F1
ss(g1201
g1204
tp4292
g1
(g6
tRp4293
g3902
F1
ss(Vhope
p4294
g3427
tp4295
g1
(g6
tRp4296
g334
F1
ss(g3565
g2425
tp4297
g1
(g6
tRp4298
g2428
F1
ss(g2581
tp4299
g1
(g6
tRp4300
Vof
p4301
F1
ss(g261
g999
tp4302
g1
(g6
tRp4303
Vof
p4304
F1
ss(g1069
tp4305
g1
(g6
tRp4306
g1070
F1
ss(g241
tp4307
g1
(g6
tRp4308
g670
F1
ss(g3304
tp4309
g1
(g6
tRp4310
g2137
F0.25
sg2014
F0.25
sg2735
F0.25
sg1924
F0.25
ss(g3258
tp4311
g1
(g6
tRp4312
g3261
F1
ss(g2465
tp4313
g1
(g6
tRp4314
g2044
F1
ss(g1665
g1361
tp4315
g1
(g6
tRp4316
g1337
F0.5
sVan
p4317
F0.5
ss(g131
g134
tp4318
g1
(g6
tRp4319
g898
F1
ss(g4042
tp4320
g1
(g6
tRp4321
g4011
F0.33333333333333331
sg2484
F0.33333333333333331
sg2985
F0.33333333333333331
ss(Vfucking
p4322
Vfujos
p4323
tp4324
g1
(g6
tRp4325
S''
F1
ss(g3638
g3565
tp4326
g1
(g6
tRp4327
g2425
F1
ss(g1602
tp4328
g1
(g6
tRp4329
g2269
F1
ss(g345
tp4330
g1
(g6
tRp4331
g380
F1
ss(g53
tp4332
g1
(g6
tRp4333
g54
F1
ss(g2563
tp4334
g1
(g6
tRp4335
S''
F1
ss(g1932
g2213
tp4336
g1
(g6
tRp4337
g1758
F1
ss(g224
g227
tp4338
g1
(g6
tRp4339
g2017
F1
ss(g2375
g2679
tp4340
g1
(g6
tRp4341
g451
F1
ss(g1065
g1068
tp4342
g1
(g6
tRp4343
g4259
F1
ss(g4284
g4287
tp4344
g1
(g6
tRp4345
g3047
F1
ss(g1021
g1024
tp4346
g1
(g6
tRp4347
Vof
p4348
F1
ss(g1457
Va
tp4349
g1
(g6
tRp4350
g426
F1
ss(g160
g163
tp4351
g1
(g6
tRp4352
g408
F1
ss(g1059
tp4353
g1
(g6
tRp4354
Vyou
p4355
F1
ss(g2114
g2117
tp4356
g1
(g6
tRp4357
g1676
F1
ss(g3276
g346
tp4358
g1
(g6
tRp4359
S''
F1
ss(g339
g1775
tp4360
g1
(g6
tRp4361
g1792
F1
ss(g2425
g2428
tp4362
g1
(g6
tRp4363
g2441
F1
ss(g1213
g2370
tp4364
g1
(g6
tRp4365
g3102
F1
ss(Va
g2262
tp4366
g1
(g6
tRp4367
g657
F1
ss(g182
tp4368
g1
(g6
tRp4369
S''
F1
ss(g2974
g563
tp4370
g1
(g6
tRp4371
g564
F1
ss(g794
g335
tp4372
g1
(g6
tRp4373
g1881
F1
ss(g3304
g2014
tp4374
g1
(g6
tRp4375
g716
F1
ss(g1901
g1904
tp4376
g1
(g6
tRp4377
S''
F1
ss(g679
tp4378
g1
(g6
tRp4379
g680
F1
ss(g601
g604
tp4380
g1
(g6
tRp4381
S''
F1
ss(g720
tp4382
g1
(g6
tRp4383
g2750
F1
ss(g3608
g1368
tp4384
g1
(g6
tRp4385
g2923
F1
ss(g1270
tp4386
g1
(g6
tRp4387
g1271
F1
ss(g302
tp4388
g1
(g6
tRp4389
g1214
F1
ss(g2262
g657
tp4390
g1
(g6
tRp4391
g501
F1
ss(g1534
tp4392
g1
(g6
tRp4393
g1537
F1
ss(g867
tp4394
g1
(g6
tRp4395
g1145
F1
ss(g2390
tp4396
g1
(g6
tRp4397
g2391
F1
ss(Vabout
p4398
g1415
tp4399
g1
(g6
tRp4400
g1341
F1
ss(g3099
g3810
tp4401
g1
(g6
tRp4402
g721
F1
ss(g561
g4284
tp4403
g1
(g6
tRp4404
g4287
F1
ss(g755
tp4405
g1
(g6
tRp4406
g758
F1
ss(g1744
g1747
tp4407
g1
(g6
tRp4408
g3225
F1
ss(g614
g336
tp4409
g1
(g6
tRp4410
g1218
F1
ss(g3635
g3638
tp4411
g1
(g6
tRp4412
g3565
F1
ss(g2221
Va
tp4413
g1
(g6
tRp4414
g2262
F1
ss(VI'm
g94
tp4415
g1
(g6
tRp4416
g2417
F1
ss(g461
g464
tp4417
g1
(g6
tRp4418
g2801
F1
ss(g1985
tp4419
g1
(g6
tRp4420
g1986
F1
ss(g1960
VRei,
p4421
tp4422
g1
(g6
tRp4423
g3053
F1
ss(g2496
g3323
tp4424
g1
(g6
tRp4425
S''
F1
ss(g2313
g2316
tp4426
g1
(g6
tRp4427
g2847
F1
ss(g1235
g1238
tp4428
g1
(g6
tRp4429
g85
F1
ss(g613
tp4430
g1
(g6
tRp4431
g2402
F1
ss(Va
g2495
tp4432
g1
(g6
tRp4433
Vretard
p4434
F0.5
sg1835
F0.5
ss(g2289
g2623
tp4435
g1
(g6
tRp4436
g2626
F1
ss(Vreality
p4437
tp4438
g1
(g6
tRp4439
Vto
p4440
F1
ss(g1363
tp4441
g1
(g6
tRp4442
g1496
F1
ss(g666
g669
tp4443
g1
(g6
tRp4444
g2368
F0.5
sg2369
F0.5
ss(g1954
g2056
tp4445
g1
(g6
tRp4446
g734
F1
ss(g430
VI
tp4447
g1
(g6
tRp4448
g2153
F1
ss(g4301
g3046
tp4449
g1
(g6
tRp4450
S''
F1
ss(g1621
g959
tp4451
g1
(g6
tRp4452
g962
F1
ss(g727
g1059
tp4453
g1
(g6
tRp4454
g4355
F1
ss(g1626
tp4455
g1
(g6
tRp4456
g1787
F0.5
sg3645
F0.5
ss(g3385
tp4457
g1
(g6
tRp4458
g3571
F1
ss(g1499
tp4459
g1
(g6
tRp4460
g2048
F1
ss(g2181
tp4461
g1
(g6
tRp4462
g2182
F1
ss(g315
g318
tp4463
g1
(g6
tRp4464
g2028
F0.5
sg1752
F0.5
ss(g290
tp4465
g1
(g6
tRp4466
g233
F1
ss(g1392
g1395
tp4467
g1
(g6
tRp4468
g2239
F1
ss(g1371
g2051
tp4469
g1
(g6
tRp4470
g4111
F1
ss(g2795
g3352
tp4471
g1
(g6
tRp4472
S''
F1
ss(g1442
g1366
tp4473
g1
(g6
tRp4474
S''
F1
ss(g1145
g2039
tp4475
g1
(g6
tRp4476
g694
F1
ss(g3343
tp4477
g1
(g6
tRp4478
Va
F0.14285714285714285
sg591
F0.095238095238095233
sg939
F0.095238095238095233
sg1056
F0.095238095238095233
sg3531
F0.095238095238095233
sg1007
F0.095238095238095233
sg814
F0.095238095238095233
sg864
F0.095238095238095233
sg4421
F0.095238095238095233
sg3809
F0.095238095238095233
ss(g4304
g3043
tp4479
g1
(g6
tRp4480
g3748
F1
ss(g335
tp4481
g1
(g6
tRp4482
g1881
F0.22222222222222221
sg403
F0.22222222222222221
sg860
F0.22222222222222221
sg3080
F0.33333333333333331
ss(g1050
g1585
tp4483
g1
(g6
tRp4484
g1588
F1
ss(VI
g2154
tp4485
g1
(g6
tRp4486
g2644
F1
ss(g1920
tp4487
g1
(g6
tRp4488
S''
F0.16666666666666666
sg1582
F0.16666666666666666
sVI
F0.16666666666666666
sg362
F0.16666666666666666
sg1923
F0.16666666666666666
sg3201
F0.16666666666666666
ss(g73
g76
tp4489
g1
(g6
tRp4490
g3528
F1
ss(g3232
g1696
tp4491
g1
(g6
tRp4492
g1699
F1
ss(g924
tp4493
g1
(g6
tRp4494
g2574
F0.25
sVto
p4495
F0.25
sVeven
p4496
F0.25
sg927
F0.25
ss(g689
g674
tp4497
g1
(g6
tRp4498
g677
F1
ss(g3729
g3732
tp4499
g1
(g6
tRp4500
g1751
F1
ss(g1074
tp4501
g1
(g6
tRp4502
g1077
F1
ss(g2284
g2834
tp4503
g1
(g6
tRp4504
g4122
F1
ss(g2465
g2044
tp4505
g1
(g6
tRp4506
g1376
F1
ss(g241
g670
tp4507
g1
(g6
tRp4508
g673
F1
ss(g4015
g1996
tp4509
g1
(g6
tRp4510
g1997
F1
ss(g589
g3446
tp4511
g1
(g6
tRp4512
g1196
F1
ss(g98
g101
tp4513
g1
(g6
tRp4514
S''
F1
ss(g488
tp4515
g1
(g6
tRp4516
g2889
F1
ss(g3291
tp4517
g1
(g6
tRp4518
g2751
F1
ss(g4023
g1085
tp4519
g1
(g6
tRp4520
g895
F1
ss(g1172
g1175
tp4521
g1
(g6
tRp4522
g889
F1
ss(g1319
g846
tp4523
g1
(g6
tRp4524
g431
F1
ss(g2194
g1464
tp4525
g1
(g6
tRp4526
g1465
F1
ss(g839
tp4527
g1
(g6
tRp4528
g482
F1
ss(g1825
g1828
tp4529
g1
(g6
tRp4530
Vwhat
p4531
F1
ss(g2017
g2020
tp4532
g1
(g6
tRp4533
g2036
F1
ss(g1150
g2725
tp4534
g1
(g6
tRp4535
g1617
F1
ss(g3112
g2285
tp4536
g1
(g6
tRp4537
g2286
F0.5
sg2245
F0.5
ss(g1291
tp4538
g1
(g6
tRp4539
g289
F0.59999999999999998
sg3739
F0.40000000000000002
ss(g1187
g1190
tp4540
g1
(g6
tRp4541
S''
F1
ss(VWith
g1897
tp4542
g1
(g6
tRp4543
S''
F1
ss(g2679
g451
tp4544
g1
(g6
tRp4545
g452
F1
ss(g2248
g2665
tp4546
g1
(g6
tRp4547
g2003
F1
ss(g93
Vand
p4548
tp4549
g1
(g6
tRp4550
VI
F1
ss(g1734
g886
tp4551
g1
(g6
tRp4552
g784
F1
ss(g2459
g2462
tp4553
g1
(g6
tRp4554
g616
F1
ss(g2162
Vway
p4555
tp4556
g1
(g6
tRp4557
VI
F1
ss(g859
g1563
tp4558
g1
(g6
tRp4559
g1564
F1
ss(g86
g89
tp4560
g1
(g6
tRp4561
g2617
F1
ss(g3439
tp4562
g1
(g6
tRp4563
g2788
F1
ss(g3012
tp4564
g1
(g6
tRp4565
g2459
F1
ss(g2506
tp4566
g1
(g6
tRp4567
g3619
F1
ss(g1447
Va
tp4568
g1
(g6
tRp4569
g139
F1
ss(g2195
g617
tp4570
g1
(g6
tRp4571
g620
F1
ss(g3645
g2350
tp4572
g1
(g6
tRp4573
g2351
F1
ss(g748
g882
tp4574
g1
(g6
tRp4575
g768
F1
ss(g1483
g1486
tp4576
g1
(g6
tRp4577
g3527
F1
ss(g3288
tp4578
g1
(g6
tRp4579
Vshows
p4580
F1
ss(g3666
g4496
tp4581
g1
(g6
tRp4582
g3423
F1
ss(g3284
tp4583
g1
(g6
tRp4584
g399
F1
ss(g669
g2369
tp4585
g1
(g6
tRp4586
g2941
F1
ss(VI
g2151
tp4587
g1
(g6
tRp4588
g3192
F1
ss(g712
tp4589
g1
(g6
tRp4590
g715
F1
ss(g2778
g2781
tp4591
g1
(g6
tRp4592
g1874
F1
ss(g3652
g3472
tp4593
g1
(g6
tRp4594
g3630
F1
ss(g2138
g1818
tp4595
g1
(g6
tRp4596
Vfrom
p4597
F1
ss(g1825
tp4598
g1
(g6
tRp4599
g1828
F1
ss(VI
g371
tp4600
g1
(g6
tRp4601
g374
F1
ss(g1889
tp4602
g1
(g6
tRp4603
g1892
F1
ss(g3305
g3548
tp4604
g1
(g6
tRp4605
g614
F1
ss(g1185
g4045
tp4606
g1
(g6
tRp4607
S''
F1
ss(g1392
tp4608
g1
(g6
tRp4609
g1395
F1
ss(g1782
tp4610
g1
(g6
tRp4611
g3847
F0.1111111111111111
sg776
F0.1111111111111111
sg3039
F0.1111111111111111
sg910
F0.1111111111111111
sg1602
F0.1111111111111111
sg1888
F0.1111111111111111
sg2650
F0.1111111111111111
sg1785
F0.1111111111111111
sg464
F0.1111111111111111
ss(g246
g249
tp4612
g1
(g6
tRp4613
g1993
F1
ss(g3264
tp4614
g1
(g6
tRp4615
S''
F1
ss(g644
g647
tp4616
g1
(g6
tRp4617
g3147
F1
ss(g1463
tp4618
g1
(g6
tRp4619
g3187
F1
ss(VI
g2131
tp4620
g1
(g6
tRp4621
g1347
F0.5
sg1927
F0.5
ss(g2503
tp4622
g1
(g6
tRp4623
g2363
F1
ss(g2117
g1676
tp4624
g1
(g6
tRp4625
g1679
F1
ss(g1864
g456
tp4626
g1
(g6
tRp4627
g457
F1
ss(g1234
g1840
tp4628
g1
(g6
tRp4629
g3494
F1
ss(g1003
tp4630
g1
(g6
tRp4631
S''
F0.2857142857142857
sg1486
F0.2857142857142857
sg1004
F0.42857142857142855
ss(g513
g2216
tp4632
g1
(g6
tRp4633
g2167
F1
ss(g1965
g1968
tp4634
g1
(g6
tRp4635
g2818
F1
ss(g3130
g1637
tp4636
g1
(g6
tRp4637
g1640
F1
ss(g1271
g1274
tp4638
g1
(g6
tRp4639
g1392
F0.5
sg3666
F0.5
ss(g859
tp4640
g1
(g6
tRp4641
g3027
F0.33333333333333331
sg1563
F0.33333333333333331
sg1206
F0.33333333333333331
ss(g885
g1960
tp4642
g1
(g6
tRp4643
g4421
F1
ss(g349
tp4644
g1
(g6
tRp4645
g1554
F0.5
sg350
F0.5
ss(g3654
g1666
tp4646
g1
(g6
tRp4647
g1669
F1
ss(g2114
tp4648
g1
(g6
tRp4649
g2117
F1
ss(g553
g172
tp4650
g1
(g6
tRp4651
g4234
F1
ss(g2441
tp4652
g1
(g6
tRp4653
g2442
F1
ss(g1115
g1118
tp4654
g1
(g6
tRp4655
g542
F1
ss(g1564
g1016
tp4656
g1
(g6
tRp4657
g1019
F1
ss(g1598
tp4658
g1
(g6
tRp4659
g295
F0.5
sg1599
F0.5
ss(g734
g2655
tp4660
g1
(g6
tRp4661
VDVD
p4662
F1
ss(g2254
g1312
tp4663
g1
(g6
tRp4664
g1315
F1
ss(g2689
g2692
tp4665
g1
(g6
tRp4666
g4169
F0.5
sg2570
F0.5
ss(g421
g2120
tp4667
g1
(g6
tRp4668
g3210
F1
ss(g1828
g4531
tp4669
g1
(g6
tRp4670
g1724
F1
ss(g2350
tp4671
g1
(g6
tRp4672
g2351
F1
ss(g1397
g1400
tp4673
g1
(g6
tRp4674
g1374
F1
ss(g2612
Va
tp4675
g1
(g6
tRp4676
g2498
F1
ss(g999
g4304
tp4677
g1
(g6
tRp4678
g3043
F1
ss(g1769
g1772
tp4679
g1
(g6
tRp4680
g1782
F1
ss(g996
tp4681
g1
(g6
tRp4682
g1436
F1
ss(g1304
g1020
tp4683
g1
(g6
tRp4684
g1021
F1
ss(g3302
g383
tp4685
g1
(g6
tRp4686
g384
F1
ss(g2581
g4301
tp4687
g1
(g6
tRp4688
g3046
F1
ss(g3297
g2877
tp4689
g1
(g6
tRp4690
g2881
F1
ss(g4348
g1396
tp4691
g1
(g6
tRp4692
g1397
F1
ss(g3232
tp4693
g1
(g6
tRp4694
g1696
F1
ss(VI
g2153
tp4695
g1
(g6
tRp4696
g3706
F1
ss(g1214
g1217
tp4697
g1
(g6
tRp4698
g1743
F1
ss(g1848
g4050
tp4699
g1
(g6
tRp4700
g4053
F1
ss(g4234
g1808
tp4701
g1
(g6
tRp4702
g1330
F1
ss(g1162
tp4703
g1
(g6
tRp4704
Va
F1
ss(g2851
tp4705
g1
(g6
tRp4706
S''
F1
ss(g2926
g2974
tp4707
g1
(g6
tRp4708
g563
F1
ss(g306
g2588
tp4709
g1
(g6
tRp4710
g2589
F1
ss(g694
tp4711
g1
(g6
tRp4712
g695
F1
ss(g550
tp4713
g1
(g6
tRp4714
g3659
F1
ss(g273
tp4715
g1
(g6
tRp4716
g181
F1
ss(g1111
tp4717
g1
(g6
tRp4718
g1114
F1
ss(g1024
tp4719
g1
(g6
tRp4720
g4348
F1
ss(g620
Vme
p4721
tp4722
g1
(g6
tRp4723
S''
F1
ss(g3301
tp4724
g1
(g6
tRp4725
g3105
F1
ss(g3599
tp4726
g1
(g6
tRp4727
g2021
F0.2857142857142857
sS''
F0.42857142857142855
sg2782
F0.2857142857142857
ss(g2770
tp4728
g1
(g6
tRp4729
S''
F1
ss(g1954
tp4730
g1
(g6
tRp4731
g68
F0.5
sg2056
F0.5
ss(g477
g2798
tp4732
g1
(g6
tRp4733
g2042
F1
ss(g653
g656
tp4734
g1
(g6
tRp4735
g1182
F1
ss(g460
tp4736
g1
(g6
tRp4737
S''
F0.27272727272727271
sg2829
F0.18181818181818182
sg388
F0.18181818181818182
sg2566
F0.18181818181818182
sg2036
F0.18181818181818182
ss(g3296
g3493
tp4738
g1
(g6
tRp4739
g4042
F1
ss(g539
g439
tp4740
g1
(g6
tRp4741
g440
F1
ss(g1045
tp4742
g1
(g6
tRp4743
g1845
F1
ss(VI
g2157
tp4744
g1
(g6
tRp4745
g4398
F1
ss(g209
tp4746
g1
(g6
tRp4747
S''
F1
ss(g1033
g3284
tp4748
g1
(g6
tRp4749
g399
F1
ss(g876
tp4750
g1
(g6
tRp4751
g2205
F1
ss(g175
g3653
tp4752
g1
(g6
tRp4753
g3654
F1
ss(g931
g934
tp4754
g1
(g6
tRp4755
g1047
F1
ss(Vwindow
p4756
tp4757
g1
(g6
tRp4758
S''
F1
ss(g2650
g1901
tp4759
g1
(g6
tRp4760
g1904
F1
ss(g971
tp4761
g1
(g6
tRp4762
g974
F1
ss(g1353
tp4763
g1
(g6
tRp4764
g3586
F1
ss(g1748
g1474
tp4765
g1
(g6
tRp4766
g1475
F1
ss(g202
g205
tp4767
g1
(g6
tRp4768
g2543
F1
ss(V"
g2163
tp4769
g1
(g6
tRp4770
g2166
F1
ss(g2829
g2256
tp4771
g1
(g6
tRp4772
g40
F1
ss(g134
g898
tp4773
g1
(g6
tRp4774
S''
F1
ss(g1318
tp4775
g1
(g6
tRp4776
g1319
F0.33333333333333331
sg1381
F0.33333333333333331
sg639
F0.33333333333333331
ss(g488
g2889
tp4777
g1
(g6
tRp4778
S''
F1
ss(g138
g1672
tp4779
g1
(g6
tRp4780
S''
F1
ss(g2051
g4111
tp4781
g1
(g6
tRp4782
S''
F1
ss(g1844
Vin
p4783
tp4784
g1
(g6
tRp4785
Vthe
p4786
F1
ss(g810
tp4787
g1
(g6
tRp4788
g813
F1
ss(g2781
tp4789
g1
(g6
tRp4790
g1874
F1
ss(g4421
tp4791
g1
(g6
tRp4792
g3053
F1
ss(VHe
g3407
tp4793
g1
(g6
tRp4794
g2547
F1
ss(g959
g962
tp4795
g1
(g6
tRp4796
g17
F1
ss(g274
g277
tp4797
g1
(g6
tRp4798
VI
F1
ss(g1364
g2633
tp4799
g1
(g6
tRp4800
Va
F1
ss(g2208
tp4801
g1
(g6
tRp4802
g1765
F1
ss(g1356
g1200
tp4803
g1
(g6
tRp4804
g1201
F1
ss(g2696
g826
tp4805
g1
(g6
tRp4806
g829
F1
ss(g702
tp4807
g1
(g6
tRp4808
g923
F1
ss(VWhat
g1686
tp4809
g1
(g6
tRp4810
g1378
F1
ss(g357
g446
tp4811
g1
(g6
tRp4812
g173
F0.5
sg176
F0.5
ss(g805
g1957
tp4813
g1
(g6
tRp4814
g885
F1
ss(g497
g500
tp4815
g1
(g6
tRp4816
g1278
F1
ss(g3075
g2199
tp4817
g1
(g6
tRp4818
g2954
F1
ss(g1564
tp4819
g1
(g6
tRp4820
g1016
F1
ss(g1533
g1247
tp4821
g1
(g6
tRp4822
g1248
F1
ss(g3026
g39
tp4823
g1
(g6
tRp4824
g1056
F1
ss(g1204
g3902
tp4825
g1
(g6
tRp4826
g3903
F1
ss(g542
tp4827
g1
(g6
tRp4828
g543
F1
ss(g1721
tp4829
g1
(g6
tRp4830
g1673
F1
ss(g1264
g1267
tp4831
g1
(g6
tRp4832
Vshit
p4833
F1
ss(g1059
g4355
tp4834
g1
(g6
tRp4835
g4322
F1
ss(g193
g3269
tp4836
g1
(g6
tRp4837
g1283
F1
ss(g1669
g2744
tp4838
g1
(g6
tRp4839
S''
F1
ss(g432
g435
tp4840
g1
(g6
tRp4841
g1359
F1
ss(g1024
g4348
tp4842
g1
(g6
tRp4843
g1396
F1
ss(g469
tp4844
g1
(g6
tRp4845
g472
F1
ss(g2021
tp4846
g1
(g6
tRp4847
g2022
F1
ss(g366
g1873
tp4848
g1
(g6
tRp4849
g237
F1
ss(g3307
g4294
tp4850
g1
(g6
tRp4851
g3427
F1
ss(g1567
tp4852
g1
(g6
tRp4853
g1568
F1
ss(g3292
VI
tp4854
g1
(g6
tRp4855
g1231
F1
ss(g2840
g3418
tp4856
g1
(g6
tRp4857
Vif
p4858
F1
ss(g683
tp4859
g1
(g6
tRp4860
g686
F1
ss(g90
g96
tp4861
g1
(g6
tRp4862
g2102
F1
ss(g3436
tp4863
g1
(g6
tRp4864
g3930
F1
ss(g3043
g3748
tp4865
g1
(g6
tRp4866
S''
F1
ss(Va
g426
tp4867
g1
(g6
tRp4868
g427
F1
ss(g634
tp4869
g1
(g6
tRp4870
g1093
F1
ss(g4437
g4440
tp4871
g1
(g6
tRp4872
g1384
F1
ss(g910
g1900
tp4873
g1
(g6
tRp4874
g4437
F1
ss(Va
g2317
tp4875
g1
(g6
tRp4876
S''
F1
ss(g1373
tp4877
g1
(g6
tRp4878
VI
F0.33333333333333331
sg2025
F0.33333333333333331
sg2266
F0.33333333333333331
ss(g504
g1626
tp4879
g1
(g6
tRp4880
g3645
F1
ss(g143
g146
tp4881
g1
(g6
tRp4882
g773
F1
ss(g610
tp4883
g1
(g6
tRp4884
g1242
F1
ss(g1805
g693
tp4885
g1
(g6
tRp4886
g2521
F1
ss(g357
tp4887
g1
(g6
tRp4888
Va
F0.13333333333333333
sVi
F0.13333333333333333
sg798
F0.20000000000000001
sg794
F0.13333333333333333
sg446
F0.20000000000000001
sg842
F0.20000000000000001
ss(g98
tp4889
g1
(g6
tRp4890
g101
F0.5
sg1799
F0.5
ss(g2174
tp4891
g1
(g6
tRp4892
g1003
F1
ss(g2850
g1538
tp4893
g1
(g6
tRp4894
g1539
F1
ss(g1766
tp4895
g1
(g6
tRp4896
g326
F1
ss(g4294
tp4897
g1
(g6
tRp4898
g3427
F1
ss(g2521
g2734
tp4899
g1
(g6
tRp4900
g574
F0.59999999999999998
sg2670
F0.40000000000000002
ss(g660
tp4901
g1
(g6
tRp4902
g4006
F0.037735849056603772
sg18
F0.056603773584905662
sg2323
F0.037735849056603772
sg110
F0.037735849056603772
sg85
F0.056603773584905662
sg1190
F0.037735849056603772
sg3264
F0.037735849056603772
sg4531
F0.037735849056603772
sg4597
F0.037735849056603772
sg1060
F0.037735849056603772
sg661
F0.037735849056603772
sg1595
F0.056603773584905662
sg1163
F0.037735849056603772
sg1743
F0.037735849056603772
sg826
F0.037735849056603772
sg2281
F0.037735849056603772
sg1909
F0.037735849056603772
sg158
F0.037735849056603772
sg1993
F0.037735849056603772
sg1978
F0.037735849056603772
sg2895
F0.037735849056603772
sg546
F0.037735849056603772
sg22
F0.037735849056603772
sg1626
F0.037735849056603772
sg1564
F0.037735849056603772
ss(g1627
tp4903
g1
(g6
tRp4904
g1748
F0.33333333333333331
sg979
F0.33333333333333331
sg1628
F0.33333333333333331
ss(g211
tp4905
g1
(g6
tRp4906
g214
F1
ss(g2194
tp4907
g1
(g6
tRp4908
S''
F0.15384615384615385
sg982
F0.15384615384615385
sg1135
F0.15384615384615385
sg1475
F0.15384615384615385
sg1464
F0.15384615384615385
sg2767
F0.23076923076923078
ss(Va
g2496
tp4909
g1
(g6
tRp4910
g3323
F1
ss(g2606
g2198
tp4911
g1
(g6
tRp4912
g1731
F1
ss(g838
tp4913
g1
(g6
tRp4914
Va
F0.1111111111111111
sg1951
F0.07407407407407407
sg3075
F0.07407407407407407
sg165
F0.07407407407407407
sg1287
F0.07407407407407407
sg567
F0.07407407407407407
sg2354
F0.07407407407407407
sg1957
F0.07407407407407407
sg839
F0.07407407407407407
sg1196
F0.07407407407407407
sg895
F0.07407407407407407
sg1110
F0.07407407407407407
sg1945
F0.07407407407407407
ss(g3279
g3119
tp4915
g1
(g6
tRp4916
g1854
F1
ss(g906
tp4917
g1
(g6
tRp4918
g907
F1
ss(g1934
tp4919
g1
(g6
tRp4920
g2130
F0.25
sg1000
F0.25
sg258
F0.25
sg1961
F0.25
ss(g2208
g1765
tp4921
g1
(g6
tRp4922
g1766
F1
ss(g1585
g1588
tp4923
g1
(g6
tRp4924
g1138
F1
ss(g1568
tp4925
g1
(g6
tRp4926
S''
F1
ss(g2801
g2804
tp4927
g1
(g6
tRp4928
S''
F1
ss(g1782
g1785
tp4929
g1
(g6
tRp4930
g1039
F1
ss(g1937
g3044
tp4931
g1
(g6
tRp4932
g44
F1
ss(g1787
g436
tp4933
g1
(g6
tRp4934
V2
F1
ss(g423
g4
tp4935
g1
(g6
tRp4936
g8
F1
ss(g1708
g2067
tp4937
g1
(g6
tRp4938
g2611
F1
ss(g1088
g852
tp4939
g1
(g6
tRp4940
g853
F1
ss(g1436
g1367
tp4941
g1
(g6
tRp4942
g3635
F1
ss(g201
g611
tp4943
g1
(g6
tRp4944
g1557
F1
ss(g142
g1034
tp4945
g1
(g6
tRp4946
g1035
F1
ss(g1209
g3178
tp4947
g1
(g6
tRp4948
g2548
F1
ss(Vmakes
p4949
g135
tp4950
g1
(g6
tRp4951
g138
F1
ss(Va
g2313
tp4952
g1
(g6
tRp4953
g2316
F1
ss(g9
tp4954
g1
(g6
tRp4955
g10
F1
ss(g1204
tp4956
g1
(g6
tRp4957
g3902
F1
ss(g331
g339
tp4958
g1
(g6
tRp4959
g1775
F1
ss(g2180
g2329
tp4960
g1
(g6
tRp4961
g2330
F1
ss(V"
tp4962
g1
(g6
tRp4963
VI
F0.5
sg2163
F0.5
ss(g2156
g3039
tp4964
g1
(g6
tRp4965
g1346
F1
ss(g1628
g864
tp4966
g1
(g6
tRp4967
Va
F1
ss(g647
g3147
tp4968
g1
(g6
tRp4969
g3150
F1
ss(g3300
g3439
tp4970
g1
(g6
tRp4971
g2788
F1
ss(g2725
tp4972
g1
(g6
tRp4973
g1617
F1
ss(g2685
tp4974
g1
(g6
tRp4975
g375
F0.25
sg2686
F0.25
sg3635
F0.25
sg190
F0.25
ss(g2286
tp4976
g1
(g6
tRp4977
g2892
F0.5
sg2289
F0.5
ss(g3539
tp4978
g1
(g6
tRp4979
g3540
F0.5
sg2230
F0.5
ss(g2153
g3706
tp4980
g1
(g6
tRp4981
g1976
F1
ss(g4495
g4016
tp4982
g1
(g6
tRp4983
g4011
F1
ss(g883
tp4984
g1
(g6
tRp4985
S''
F0.25
sg2330
F0.25
sg1494
F0.25
sg1495
F0.25
ss(g1875
g93
tp4986
g1
(g6
tRp4987
g4548
F1
ss(g22
tp4988
g1
(g6
tRp4989
g25
F1
ss(g3653
tp4990
g1
(g6
tRp4991
g902
F0.33333333333333331
sg3654
F0.33333333333333331
sg1209
F0.33333333333333331
ss(g1319
tp4992
g1
(g6
tRp4993
g846
F1
ss(g4597
tp4994
g1
(g6
tRp4995
Va
F0.5
sg1735
F0.5
ss(g116
tp4996
g1
(g6
tRp4997
g689
F1
ss(g1065
tp4998
g1
(g6
tRp4999
g1068
F1
ss(g1101
g1104
tp5000
g1
(g6
tRp5001
g1937
F1
ss(g522
g996
tp5002
g1
(g6
tRp5003
g1436
F1
ss(g2391
g2394
tp5004
g1
(g6
tRp5005
g610
F1
ss(g1341
g1418
tp5006
g1
(g6
tRp5007
g2177
F1
ss(g2320
g2323
tp5008
g1
(g6
tRp5009
g3258
F1
ss(g2007
g148
tp5010
g1
(g6
tRp5011
g3394
F0.5
sg3720
F0.5
ss(g1727
g3279
tp5012
g1
(g6
tRp5013
g3119
F1
ss(g2705
g2708
tp5014
g1
(g6
tRp5015
g194
F1
ss(g2368
tp5016
g1
(g6
tRp5017
g2854
F1
ss(g3050
g2544
tp5018
g1
(g6
tRp5019
Va
F1
ss(g2233
g2236
tp5020
g1
(g6
tRp5021
g2455
F1
ss(g3261
g728
tp5022
g1
(g6
tRp5023
g3371
F1
ss(g2809
g1135
tp5024
g1
(g6
tRp5025
S''
F1
ss(g2261
g1270
tp5026
g1
(g6
tRp5027
g1271
F1
ss(g4434
tp5028
g1
(g6
tRp5029
S''
F1
ss(g2716
g2251
tp5030
g1
(g6
tRp5031
g2255
F1
ss(g1353
g3586
tp5032
g1
(g6
tRp5033
g3017
F0.5
sg3042
F0.5
ss(VI
g1721
tp5034
g1
(g6
tRp5035
g1673
F1
ss(g2256
g40
tp5036
g1
(g6
tRp5037
g4006
F1
ss(g567
tp5038
g1
(g6
tRp5039
g683
F1
ss(g396
tp5040
g1
(g6
tRp5041
g282
F1
ss(g3472
g3630
tp5042
g1
(g6
tRp5043
g3539
F1
ss(g3311
tp5044
g1
(g6
tRp5045
g2113
F1
ss(g2650
tp5046
g1
(g6
tRp5047
g1901
F1
ss(g2665
g2003
tp5048
g1
(g6
tRp5049
g57
F1
ss(g1893
g1896
tp5050
g1
(g6
tRp5051
g2384
F1
ss(g1620
g2035
tp5052
g1
(g6
tRp5053
g1419
F1
ss(g1372
g1864
tp5054
g1
(g6
tRp5055
g456
F1
ss(g3053
g3056
tp5056
g1
(g6
tRp5057
g1362
F1
ss(g621
g21
tp5058
g1
(g6
tRp5059
g22
F1
ss(g3045
tp5060
g1
(g6
tRp5061
g2144
F1
ss(g3930
g589
tp5062
g1
(g6
tRp5063
g3446
F1
ss(VI
g635
tp5064
g1
(g6
tRp5065
g278
F1
ss(g219
g222
tp5066
g1
(g6
tRp5067
g367
F1
ss(g2225
g2465
tp5068
g1
(g6
tRp5069
g2044
F1
ss(g371
g374
tp5070
g1
(g6
tRp5071
g595
F1
ss(g620
tp5072
g1
(g6
tRp5073
g4721
F1
ss(g1221
tp5074
g1
(g6
tRp5075
S''
F1
ss(g3620
g3623
tp5076
g1
(g6
tRp5077
VI
F1
ss(g2102
Va
tp5078
g1
(g6
tRp5079
g755
F1
ss(g2495
g4434
tp5080
g1
(g6
tRp5081
S''
F1
ss(Va
g2498
tp5082
g1
(g6
tRp5083
g1512
F0.5
sg2792
F0.5
ss(g585
g2094
tp5084
g1
(g6
tRp5085
g2095
F1
ss(g1167
tp5086
g1
(g6
tRp5087
g3232
F1
ss(g3307
tp5088
g1
(g6
tRp5089
g4294
F1
ss(g3150
g1523
tp5090
g1
(g6
tRp5091
g1526
F1
ss(g927
g2756
tp5092
g1
(g6
tRp5093
g365
F1
ss(VSo
g2137
tp5094
g1
(g6
tRp5095
g2138
F1
ss(g3472
tp5096
g1
(g6
tRp5097
g3630
F1
ss(g30
tp5098
g1
(g6
tRp5099
g2082
F0.42857142857142855
sg4398
F0.2857142857142857
sg307
F0.2857142857142857
ss(g2571
g2574
tp5100
g1
(g6
tRp5101
S''
F1
ss(g113
g2935
tp5102
g1
(g6
tRp5103
g2938
F1
ss(g870
g873
tp5104
g1
(g6
tRp5105
S''
F1
ss(g2750
tp5106
g1
(g6
tRp5107
g749
F0.5
sg924
F0.5
ss(g3284
g399
tp5108
g1
(g6
tRp5109
g400
F1
ss(g1428
tp5110
g1
(g6
tRp5111
g1429
F1
ss(g2907
g1264
tp5112
g1
(g6
tRp5113
g1267
F1
ss(g4050
g4053
tp5114
g1
(g6
tRp5115
S''
F1
ss(g1488
tp5116
g1
(g6
tRp5117
VI
F1
ss(g472
g4495
tp5118
g1
(g6
tRp5119
g4016
F1
ss(g1138
g1142
tp5120
g1
(g6
tRp5121
g1942
F1
ss(g1874
tp5122
g1
(g6
tRp5123
g1875
F1
ss(g1669
tp5124
g1
(g6
tRp5125
g2744
F1
ss(g2269
tp5126
g1
(g6
tRp5127
g2270
F1
ss(g1662
g1665
tp5128
g1
(g6
tRp5129
g1361
F1
ss(g731
g340
tp5130
g1
(g6
tRp5131
g2468
F1
ss(Va
g2481
tp5132
g1
(g6
tRp5133
g970
F1
ss(g3302
tp5134
g1
(g6
tRp5135
g383
F1
ss(g359
g362
tp5136
g1
(g6
tRp5137
g1989
F1
ss(g1341
tp5138
g1
(g6
tRp5139
g1418
F1
ss(g3809
g2293
tp5140
g1
(g6
tRp5141
g2296
F1
ss(g617
g620
tp5142
g1
(g6
tRp5143
g4721
F1
ss(g1097
g1155
tp5144
g1
(g6
tRp5145
g1158
F1
ss(g3287
g4949
tp5146
g1
(g6
tRp5147
g135
F1
ss(g2230
g703
tp5148
g1
(g6
tRp5149
g704
F1
ss(g1821
g422
tp5150
g1
(g6
tRp5151
g423
F1
ss(g2502
tp5152
g1
(g6
tRp5153
S''
F1
ss(g3338
g2507
tp5154
g1
(g6
tRp5155
g447
F1
ss(g2450
tp5156
g1
(g6
tRp5157
g1648
F1
ss(g2166
g3457
tp5158
g1
(g6
tRp5159
g730
F1
ss(g1792
tp5160
g1
(g6
tRp5161
g3343
F1
ss(g1118
tp5162
g1
(g6
tRp5163
g542
F1
ss(g1185
tp5164
g1
(g6
tRp5165
g4045
F1
ss(Vof
g3045
tp5166
g1
(g6
tRp5167
g2144
F1
ss(VI
g2155
tp5168
g1
(g6
tRp5169
Va
F0.5
sg1821
F0.5
ss(g974
tp5170
g1
(g6
tRp5171
g518
F1
ss(g3635
tp5172
g1
(g6
tRp5173
g3638
F0.5
sg1204
F0.5
ss(g3058
tp5174
g1
(g6
tRp5175
S''
F1
ss(g197
tp5176
g1
(g6
tRp5177
g1239
F1
ss(g2966
g102
tp5178
g1
(g6
tRp5179
g103
F1
ss(g1452
g2273
tp5180
g1
(g6
tRp5181
g1292
F1
ss(g3157
g109
tp5182
g1
(g6
tRp5183
g110
F1
ss(g190
g193
tp5184
g1
(g6
tRp5185
g3269
F1
ss(g2853
g4756
tp5186
g1
(g6
tRp5187
S''
F1
ss(g653
tp5188
g1
(g6
tRp5189
g656
F1
ss(g4287
g3047
tp5190
g1
(g6
tRp5191
g1013
F1
ss(g635
tp5192
g1
(g6
tRp5193
g278
F1
ss(g1747
g3225
tp5194
g1
(g6
tRp5195
g911
F1
ss(g2853
tp5196
g1
(g6
tRp5197
g4756
F1
ss(g1206
g1209
tp5198
g1
(g6
tRp5199
g3178
F1
ss(g1881
tp5200
g1
(g6
tRp5201
g1884
F1
ss(g4323
tp5202
g1
(g6
tRp5203
S''
F1
ss(g1981
g3652
tp5204
g1
(g6
tRp5205
g3472
F1
ss(g2500
g189
tp5206
g1
(g6
tRp5207
g190
F1
ss(g631
tp5208
g1
(g6
tRp5209
g634
F1
ss(g3906
g2368
tp5210
g1
(g6
tRp5211
g2854
F1
ss(g4858
g173
tp5212
g1
(g6
tRp5213
g338
F1
ss(g758
tp5214
g1
(g6
tRp5215
g106
F1
ss(g604
tp5216
g1
(g6
tRp5217
S''
F1
ss(g882
tp5218
g1
(g6
tRp5219
g768
F1
ss(g2926
tp5220
g1
(g6
tRp5221
g2974
F1
ss(g3279
tp5222
g1
(g6
tRp5223
g3119
F1
ss(g443
tp5224
g1
(g6
tRp5225
g3451
F0.5
sg1912
F0.5
ss(g726
tp5226
g1
(g6
tRp5227
S''
F1
ss(g1081
tp5228
g1
(g6
tRp5229
g1082
F1
ss(g2792
g2795
tp5230
g1
(g6
tRp5231
g3352
F1
ss(g1068
g4259
tp5232
g1
(g6
tRp5233
g3956
F1
ss(g469
g472
tp5234
g1
(g6
tRp5235
g4495
F1
ss(g2153
tp5236
g1
(g6
tRp5237
g3706
F1
ss(g117
tp5238
g1
(g6
tRp5239
g118
F1
ss(g314
g2506
tp5240
g1
(g6
tRp5241
g3619
F1
ss(g3294
g2766
tp5242
g1
(g6
tRp5243
g2767
F1
ss(g3005
g493
tp5244
g1
(g6
tRp5245
S''
F1
ss(g2035
g1419
tp5246
g1
(g6
tRp5247
S''
F1
ss(g1711
g198
tp5248
g1
(g6
tRp5249
g201
F1
ss(g930
tp5250
g1
(g6
tRp5251
S''
F1
ss(g188
g1610
tp5252
g1
(g6
tRp5253
g3195
F1
ss(g1074
g1077
tp5254
g1
(g6
tRp5255
g1364
F1
ss(g2495
tp5256
g1
(g6
tRp5257
g4323
F0.16666666666666666
sg4434
F0.16666666666666666
sg1835
F0.16666666666666666
sg1989
F0.16666666666666666
sg4555
F0.16666666666666666
sg408
F0.16666666666666666
ss(g3299
tp5258
g1
(g6
tRp5259
S''
F1
ss(g1835
tp5260
g1
(g6
tRp5261
S''
F1
ss(g2481
g970
tp5262
g1
(g6
tRp5263
g971
F1
ss(g2497
tp5264
g1
(g6
tRp5265
g422
F0.20000000000000001
sVa
F0.20000000000000001
sg2716
F0.20000000000000001
sg773
F0.20000000000000001
sS''
F0.20000000000000001
ss(g1331
Va
tp5266
g1
(g6
tRp5267
g2501
F0.5
sg2500
F0.5
ss(g1592
g1595
tp5268
g1
(g6
tRp5269
g1045
F0.5
sg1049
F0.5
ss(g3378
tp5270
g1
(g6
tRp5271
g1859
F1
ss(g1818
g4597
tp5272
g1
(g6
tRp5273
Va
F1
ss(g1340
g341
tp5274
g1
(g6
tRp5275
g342
F0.5
sg3045
F0.5
ss(g1359
g1389
tp5276
g1
(g6
tRp5277
g3112
F1
ss(g49
g1048
tp5278
g1
(g6
tRp5279
g2456
F1
ss(g537
tp5280
g1
(g6
tRp5281
g2763
F1
ss(g1510
g2280
tp5282
g1
(g6
tRp5283
g2281
F1
ss(g1777
tp5284
g1
(g6
tRp5285
S''
F1
ss(g3301
g3105
tp5286
g1
(g6
tRp5287
g1553
F1
ss(g1479
tp5288
g1
(g6
tRp5289
g1155
F0.017391304347826087
sg223
F0.017391304347826087
sg1841
F0.017391304347826087
sg2188
F0.017391304347826087
sg1275
F0.017391304347826087
sg514
F0.017391304347826087
sg447
F0.017391304347826087
sg1138
F0.026086956521739129
sg149
F0.017391304347826087
sg1307
F0.017391304347826087
sg261
F0.017391304347826087
sg2187
F0.017391304347826087
sg2851
F0.017391304347826087
sg1227
F0.026086956521739129
sg1024
F0.017391304347826087
sg303
F0.017391304347826087
sg3599
F0.017391304347826087
sg1300
F0.017391304347826087
sg4284
F0.017391304347826087
sg2917
F0.017391304347826087
sg1009
F0.017391304347826087
sg2216
F0.017391304347826087
sg1717
F0.017391304347826087
sg2226
F0.017391304347826087
sg2227
F0.026086956521739129
sg215
F0.017391304347826087
sg4662
F0.017391304347826087
sg2293
F0.017391304347826087
sg154
F0.017391304347826087
sg1825
F0.017391304347826087
sg274
F0.017391304347826087
sg1159
F0.017391304347826087
sg1283
F0.017391304347826087
sg2852
F0.017391304347826087
sg2229
F0.017391304347826087
sg2850
F0.017391304347826087
sg69
F0.017391304347826087
sg2225
F0.017391304347826087
sg2141
F0.017391304347826087
sg1406
F0.017391304347826087
sg2228
F0.017391304347826087
sg2853
F0.017391304347826087
sg2472
F0.017391304347826087
sg2445
F0.017391304347826087
sg496
F0.017391304347826087
sg354
F0.017391304347826087
sg837
F0.017391304347826087
sg265
F0.017391304347826087
sg519
F0.017391304347826087
sg290
F0.017391304347826087
sg3205
F0.017391304347826087
sg416
F0.017391304347826087
sg3620
F0.017391304347826087
sg1035
F0.017391304347826087
sg1182
F0.017391304347826087
sg1758
F0.017391304347826087
ss(g1808
g1330
tp5290
g1
(g6
tRp5291
g1331
F1
ss(g886
tp5292
g1
(g6
tRp5293
g784
F1
ss(g3297
tp5294
g1
(g6
tRp5295
Va
F0.15384615384615385
sg2508
F0.15384615384615385
sg440
F0.15384615384615385
sg2877
F0.15384615384615385
sg1410
F0.15384615384615385
sg1177
F0.23076923076923078
ss(g2174
g1003
tp5296
g1
(g6
tRp5297
g1004
F1
ss(g915
g1049
tp5298
g1
(g6
tRp5299
g2230
F1
ss(g3288
g4580
tp5300
g1
(g6
tRp5301
Vyou
p5302
F1
ss(VI
g2150
tp5303
g1
(g6
tRp5304
g3080
F1
ss(g1686
g1378
tp5305
g1
(g6
tRp5306
g1008
F1
ss(g1900
tp5307
g1
(g6
tRp5308
g4437
F1
ss(g745
g748
tp5309
g1
(g6
tRp5310
g882
F1
ss(g1239
tp5311
g1
(g6
tRp5312
g838
F1
ss(g1030
g780
tp5313
g1
(g6
tRp5314
g783
F1
ss(g2907
tp5315
g1
(g6
tRp5316
g1264
F1
ss(g1752
tp5317
g1
(g6
tRp5318
S''
F0.33333333333333331
sg1848
F0.33333333333333331
sg1755
F0.33333333333333331
ss(g4042
g2985
tp5319
g1
(g6
tRp5320
g2775
F1
ss(g2655
g4662
tp5321
g1
(g6
tRp5322
S''
F1
ss(g634
g1093
tp5323
g1
(g6
tRp5324
g1094
F1
ss(g715
tp5325
g1
(g6
tRp5326
g3058
F0.5
sg2705
F0.5
ss(g1588
g1138
tp5327
g1
(g6
tRp5328
g1141
F0.5
sg1142
F0.5
ss(g1027
g1030
tp5329
g1
(g6
tRp5330
g780
F1
ss(g951
g562
tp5331
g1
(g6
tRp5332
g3137
F1
ss(g1101
tp5333
g1
(g6
tRp5334
g1104
F1
ss(g1927
tp5335
g1
(g6
tRp5336
g1928
F1
ss(g154
tp5337
g1
(g6
tRp5338
g155
F1
ss(g1350
g1353
tp5339
g1
(g6
tRp5340
g3586
F1
ss(g139
g142
tp5341
g1
(g6
tRp5342
g1034
F1
ss(g943
g946
tp5343
g1
(g6
tRp5344
g404
F1
ss(g2854
tp5345
g1
(g6
tRp5346
S''
F1
ss(g2735
g514
tp5347
g1
(g6
tRp5348
g517
F1
ss(g1191
tp5349
g1
(g6
tRp5350
g1192
F1
ss(g2506
g3619
tp5351
g1
(g6
tRp5352
g3620
F1
ss(g1060
g1063
tp5353
g1
(g6
tRp5354
g1621
F1
ss(g1180
g3036
tp5355
g1
(g6
tRp5356
g3473
F1
ss(g3192
g2254
tp5357
g1
(g6
tRp5358
g1312
F1
ss(g3493
g4042
tp5359
g1
(g6
tRp5360
g2985
F1
ss(g1747
tp5361
g1
(g6
tRp5362
g3225
F1
ss(g711
tp5363
g1
(g6
tRp5364
g712
F1
ss(g2136
Va
tp5365
g1
(g6
tRp5366
g1350
F1
ss(g95
g281
tp5367
g1
(g6
tRp5368
g315
F1
ss(g193
tp5369
g1
(g6
tRp5370
g3269
F1
ss(g1841
g1844
tp5371
g1
(g6
tRp5372
g4783
F1
ss(Va
g2503
tp5373
g1
(g6
tRp5374
g2363
F1
ss(g1465
tp5375
g1
(g6
tRp5376
g435
F0.16666666666666666
sg1468
F0.16666666666666666
sg3112
F0.16666666666666666
sg2623
F0.16666666666666666
sS''
F0.16666666666666666
sg241
F0.16666666666666666
ss(g266
g269
tp5377
g1
(g6
tRp5378
g3697
F1
ss(g1978
tp5379
g1
(g6
tRp5380
g4068
F0.5
sg1981
F0.5
ss(g2159
g2162
tp5381
g1
(g6
tRp5382
g4555
F1
ss(g920
g554
tp5383
g1
(g6
tRp5384
g555
F1
ss(g999
tp5385
g1
(g6
tRp5386
g4304
F1
ss(g2022
g2025
tp5387
g1
(g6
tRp5388
g1975
F1
ss(g2548
g3951
tp5389
g1
(g6
tRp5390
S''
F1
ss(g2394
g610
tp5391
g1
(g6
tRp5392
g1242
F1
ss(g2230
tp5393
g1
(g6
tRp5394
g703
F1
ss(g211
g214
tp5395
g1
(g6
tRp5396
g489
F1
ss(g1453
g1456
tp5397
g1
(g6
tRp5398
g3169
F1
ss(g686
tp5399
g1
(g6
tRp5400
g740
F1
ss(g2323
tp5401
g1
(g6
tRp5402
g3258
F1
ss(g258
g261
tp5403
g1
(g6
tRp5404
g999
F1
ss(g2042
VI
tp5405
g1
(g6
tRp5406
g2105
F1
ss(g3290
g2546
tp5407
g1
(g6
tRp5408
g2563
F1
ss(g1370
g3911
tp5409
g1
(g6
tRp5410
g3514
F1
ss(Vmake
p5411
g3666
tp5412
g1
(g6
tRp5413
g4496
F1
ss(g2200
g64
tp5414
g1
(g6
tRp5415
g65
F1
ss(g1142
tp5416
g1
(g6
tRp5417
S''
F0.15384615384615385
sg1887
F0.15384615384615385
sg1453
F0.15384615384615385
sg1776
F0.15384615384615385
sVa
F0.15384615384615385
sg1942
F0.23076923076923078
ss(g492
g4023
tp5418
g1
(g6
tRp5419
g1085
F1
ss(g2750
g749
tp5420
g1
(g6
tRp5421
g750
F1
ss(g3291
g2751
tp5422
g1
(g6
tRp5423
S''
F1
ss(g3287
tp5424
g1
(g6
tRp5425
VI
F0.33333333333333331
sg4949
F0.33333333333333331
sg1686
F0.33333333333333331
ss(g1177
g1180
tp5426
g1
(g6
tRp5427
g3036
F1
ss(g762
tp5428
g1
(g6
tRp5429
g808
F1
ss(g1683
Va
tp5430
g1
(g6
tRp5431
g2173
F1
ss(g3044
g44
tp5432
g1
(g6
tRp5433
g3832
F1
ss(g2969
tp5434
g1
(g6
tRp5435
g2181
F1
ss(g1602
g2269
tp5436
g1
(g6
tRp5437
g2270
F1
ss(g412
tp5438
g1
(g6
tRp5439
g413
F1
ss(g2985
tp5440
g1
(g6
tRp5441
g2775
F1
ss(g2043
g3378
tp5442
g1
(g6
tRp5443
g1859
F1
ss(g1009
g1012
tp5444
g1
(g6
tRp5445
g1081
F1
ss(g639
g642
tp5446
g1
(g6
tRp5447
g586
F1
ss(g457
g460
tp5448
g1
(g6
tRp5449
g2829
F1
ss(g1997
g130
tp5450
g1
(g6
tRp5451
g131
F1
ss(g670
g673
tp5452
g1
(g6
tRp5453
g732
F1
ss(g1167
g3232
tp5454
g1
(g6
tRp5455
g1696
F1
ss(g3847
g2484
tp5456
g1
(g6
tRp5457
g1841
F1
ss(g3309
tp5458
g1
(g6
tRp5459
g2355
F0.5
sg830
F0.5
ss(g1147
g1150
tp5460
g1
(g6
tRp5461
g2725
F1
ss(g3289
g2108
tp5462
g1
(g6
tRp5463
g154
F1
ss(g2435
g2438
tp5464
g1
(g6
tRp5465
VI
F1
ss(g269
tp5466
g1
(g6
tRp5467
g3697
F1
ss(g2422
g2074
tp5468
g1
(g6
tRp5469
g2077
F1
ss(g2155
Va
tp5470
g1
(g6
tRp5471
g2497
F1
ss(g1538
tp5472
g1
(g6
tRp5473
g1539
F1
ss(g1300
g2101
tp5474
g1
(g6
tRp5475
S''
F1
ss(g1297
g1300
tp5476
g1
(g6
tRp5477
g2101
F1
ss(g966
g969
tp5478
g1
(g6
tRp5479
g366
F1
ss(g142
tp5480
g1
(g6
tRp5481
g1034
F1
ss(V"
VI
tp5482
g1
(g6
tRp5483
g943
F1
ss(g2351
g2354
tp5484
g1
(g6
tRp5485
g2566
F1
ss(g45
g2002
tp5486
g1
(g6
tRp5487
g814
F0.5
sg3531
F0.5
ss(g875
tp5488
g1
(g6
tRp5489
g1520
F1
ss(g877
g711
tp5490
g1
(g6
tRp5491
g712
F1
ss(g3292
tp5492
g1
(g6
tRp5493
VI
F1
ss(g1840
tp5494
g1
(g6
tRp5495
g3494
F1
ss(g4006
g1373
tp5496
g1
(g6
tRp5497
VI
F1
ss(g1038
tp5498
g1
(g6
tRp5499
g3729
F1
ss(g2455
g1172
tp5500
g1
(g6
tRp5501
g1175
F1
ss(g468
g608
tp5502
g1
(g6
tRp5503
g578
F1
ss(g500
g1278
tp5504
g1
(g6
tRp5505
g1279
F1
ss(g4662
tp5506
g1
(g6
tRp5507
S''
F1
ss(g2228
g2515
tp5508
g1
(g6
tRp5509
g2172
F1
ss(g572
g174
tp5510
g1
(g6
tRp5511
Vthe
p5512
F1
ss(g2468
g3436
tp5513
g1
(g6
tRp5514
g3930
F1
ss(g2428
g2441
tp5515
g1
(g6
tRp5516
g2442
F1
ss(V2
tp5517
g1
(g6
tRp5518
g228
F1
ss(g4786
g2853
tp5519
g1
(g6
tRp5520
g4756
F1
ss(g2095
g2098
tp5521
g1
(g6
tRp5522
g2021
F0.40000000000000002
sS''
F0.59999999999999998
ss(g4012
g4015
tp5523
g1
(g6
tRp5524
g1996
F1
ss(g3081
g2892
tp5525
g1
(g6
tRp5526
g1547
F1
ss(g26
g30
tp5527
g1
(g6
tRp5528
g2082
F1
ss(g3036
tp5529
g1
(g6
tRp5530
g3473
F0.25
sg946
F0.25
sg2003
F0.25
sg1510
F0.25
ss(g330
g3075
tp5531
g1
(g6
tRp5532
g2199
F1
ss(g809
tp5533
g1
(g6
tRp5534
g810
F1
ss(g3352
tp5535
g1
(g6
tRp5536
S''
F1
ss(g1395
tp5537
g1
(g6
tRp5538
g2239
F1
ss(g2880
g725
tp5539
g1
(g6
tRp5540
g2650
F1
ss(g1372
tp5541
g1
(g6
tRp5542
g1864
F1
ss(g537
g2763
tp5543
g1
(g6
tRp5544
g1748
F1
ss(g18
Va
tp5545
g1
(g6
tRp5546
g60
F0.5
sg1115
F0.5
ss(g270
g273
tp5547
g1
(g6
tRp5548
g181
F1
ss(g1406
g1409
tp5549
g1
(g6
tRp5550
g3451
F1
ss(g1365
tp5551
g1
(g6
tRp5552
g2469
F1
ss(g172
g4234
tp5553
g1
(g6
tRp5554
g1808
F1
ss(g988
g991
tp5555
g1
(g6
tRp5556
g5411
F1
ss(g1546
g884
tp5557
g1
(g6
tRp5558
S''
F1
ss(g93
tp5559
g1
(g6
tRp5560
g4548
F1
ss(g1738
tp5561
g1
(g6
tRp5562
g1739
F1
ss(g3099
tp5563
g1
(g6
tRp5564
g460
F0.33333333333333331
sg3810
F0.33333333333333331
sg851
F0.33333333333333331
ss(g4011
tp5565
g1
(g6
tRp5566
g4012
F1
ss(g1844
tp5567
g1
(g6
tRp5568
g4783
F1
ss(g1720
g3099
tp5569
g1
(g6
tRp5570
g3810
F1
ss(g1182
g1185
tp5571
g1
(g6
tRp5572
g4045
F1
ss(g1802
g1805
tp5573
g1
(g6
tRp5574
g693
F1
ss(g1519
g1487
tp5575
g1
(g6
tRp5576
g1488
F1
ss(g2686
tp5577
g1
(g6
tRp5578
g2006
F1
ss(g218
g509
tp5579
g1
(g6
tRp5580
g510
F1
ss(g2418
tp5581
g1
(g6
tRp5582
g2421
F1
ss(g205
g2543
tp5583
g1
(g6
tRp5584
g1735
F1
ss(g2476
g648
tp5585
g1
(g6
tRp5586
g651
F1
ss(g2438
VI
tp5587
g1
(g6
tRp5588
g1913
F1
ss(g478
g481
tp5589
g1
(g6
tRp5590
g375
F1
ss(g939
tp5591
g1
(g6
tRp5592
g940
F1
ss(g1238
g85
tp5593
g1
(g6
tRp5594
g1530
F0.5
sg86
F0.5
ss(g954
g2531
tp5595
g1
(g6
tRp5596
g1567
F1
ss(g2442
g2445
tp5597
g1
(g6
tRp5598
S''
F1
ss(g1949
g2747
tp5599
g1
(g6
tRp5600
S''
F1
ss(g1984
tp5601
g1
(g6
tRp5602
g2292
F1
ss(g1464
tp5603
g1
(g6
tRp5604
Va
F0.090909090909090912
sg3081
F0.090909090909090912
sg2818
F0.090909090909090912
sg1465
F0.090909090909090912
sg582
F0.090909090909090912
sg234
F0.090909090909090912
sg1337
F0.090909090909090912
sg4317
F0.090909090909090912
sg1821
F0.090909090909090912
sg3279
F0.090909090909090912
sg969
F0.090909090909090912
ss(g427
tp5605
g1
(g6
tRp5606
g430
F1
ss(g519
g522
tp5607
g1
(g6
tRp5608
g996
F1
ss(g2734
g2670
tp5609
g1
(g6
tRp5610
g1078
F1
ss(g2077
g1453
tp5611
g1
(g6
tRp5612
g1456
F1
ss(g2370
g3102
tp5613
g1
(g6
tRp5614
g876
F1
ss(g4317
g2043
tp5615
g1
(g6
tRp5616
g3378
F1
ss(g4555
VI
tp5617
g1
(g6
tRp5618
g2157
F1
ss(g3258
g3261
tp5619
g1
(g6
tRp5620
g728
F1
ss(g2801
tp5621
g1
(g6
tRp5622
g2804
F1
ss(g2708
g194
tp5623
g1
(g6
tRp5624
g197
F1
ss(g251
g43
tp5625
g1
(g6
tRp5626
g1802
F1
ss(g2874
g2682
tp5627
g1
(g6
tRp5628
S''
F1
ss(g3298
g660
tp5629
g1
(g6
tRp5630
g661
F0.5
sg3264
F0.5
ss(g2497
g2716
tp5631
g1
(g6
tRp5632
g2251
F1
ss(g2859
g215
tp5633
g1
(g6
tRp5634
g218
F1
ss(g2588
tp5635
g1
(g6
tRp5636
g2589
F1
ss(g334
g1445
tp5637
g1
(g6
tRp5638
g3599
F1
ss(g550
g3659
tp5639
g1
(g6
tRp5640
g3201
F1
ss(g665
tp5641
g1
(g6
tRp5642
g666
F1
ss(g3147
g3150
tp5643
g1
(g6
tRp5644
g1523
F1
ss(g720
g2750
tp5645
g1
(g6
tRp5646
g749
F1
ss(g245
tp5647
g1
(g6
tRp5648
g264
F1
ss(g1231
tp5649
g1
(g6
tRp5650
g1234
F1
ss(g4597
Va
tp5651
g1
(g6
tRp5652
g2502
F1
ss(g2286
g2289
tp5653
g1
(g6
tRp5654
g2623
F1
ss(g875
g1520
tp5655
g1
(g6
tRp5656
S''
F1
ss(g2254
tp5657
g1
(g6
tRp5658
g1312
F1
ss(g3548
g614
tp5659
g1
(g6
tRp5660
g336
F1
ss(g1691
g3276
tp5661
g1
(g6
tRp5662
g346
F1
ss(g2157
g4398
tp5663
g1
(g6
tRp5664
g1415
F1
ss(g2938
g1123
tp5665
g1
(g6
tRp5666
S''
F1
ss(g4421
g3053
tp5667
g1
(g6
tRp5668
g3056
F1
ss(g3300
tp5669
g1
(g6
tRp5670
g3439
F1
ss(g979
g982
tp5671
g1
(g6
tRp5672
Va
F1
ss(g2695
tp5673
g1
(g6
tRp5674
g2696
F1
ss(g3810
tp5675
g1
(g6
tRp5676
S''
F0.060606060606060608
sg2670
F0.060606060606060608
sg1039
F0.060606060606060608
sg1181
F0.060606060606060608
sg721
F0.060606060606060608
sg4322
F0.060606060606060608
sg934
F0.060606060606060608
sg717
F0.060606060606060608
sg789
F0.060606060606060608
sg574
F0.090909090909090912
sg78
F0.060606060606060608
sg1680
F0.060606060606060608
sg46
F0.060606060606060608
sg1180
F0.060606060606060608
sg3653
F0.060606060606060608
sg2387
F0.060606060606060608
ss(g2384
g2387
tp5677
g1
(g6
tRp5678
g3847
F1
ss(g8
g2581
tp5679
g1
(g6
tRp5680
g4301
F1
ss(g1542
tp5681
g1
(g6
tRp5682
g1543
F1
ss(g769
g772
tp5683
g1
(g6
tRp5684
g605
F1
ss(g530
tp5685
g1
(g6
tRp5686
g1433
F0.5
sg531
F0.5
ss(g1346
g274
tp5687
g1
(g6
tRp5688
g277
F1
ss(g3333
g729
tp5689
g1
(g6
tRp5690
g1977
F1
ss(Va
g2502
tp5691
g1
(g6
tRp5692
S''
F1
ss(g1704
tp5693
g1
(g6
tRp5694
g1705
F1
ss(g3739
g615
tp5695
g1
(g6
tRp5696
g600
F1
ss(g2767
g2771
tp5697
g1
(g6
tRp5698
S''
F1
ss(g232
g1334
tp5699
g1
(g6
tRp5700
S''
F1
ss(g983
tp5701
g1
(g6
tRp5702
g3338
F0.33333333333333331
sg984
F0.33333333333333331
sg461
F0.33333333333333331
ss(g2785
tp5703
g1
(g6
tRp5704
g916
F1
ss(g874
g1848
tp5705
g1
(g6
tRp5706
g4050
F1
ss(g2401
g2660
tp5707
g1
(g6
tRp5708
g547
F1
ss(g4005
g765
tp5709
g1
(g6
tRp5710
g1460
F1
ss(g2531
tp5711
g1
(g6
tRp5712
g432
F0.16666666666666666
sg346
F0.16666666666666666
sg177
F0.16666666666666666
sg1278
F0.16666666666666666
sg1567
F0.16666666666666666
sg1873
F0.16666666666666666
ss(g1705
g1708
tp5713
g1
(g6
tRp5714
g2067
F1
ss(g5512
g303
tp5715
g1
(g6
tRp5716
g306
F1
ss(g1494
g2476
tp5717
g1
(g6
tRp5718
g648
F1
ss(g642
g586
tp5719
g1
(g6
tRp5720
g590
F1
ss(g554
tp5721
g1
(g6
tRp5722
g555
F1
ss(g590
g894
tp5723
g1
(g6
tRp5724
g1691
F1
ss(g789
tp5725
g1
(g6
tRp5726
g792
F0.5
sg2350
F0.5
ss(g839
g482
tp5727
g1
(g6
tRp5728
S''
F1
ss(g2248
tp5729
g1
(g6
tRp5730
g2665
F1
ss(g1082
tp5731
g1
(g6
tRp5732
g975
F0.5
sg509
F0.5
ss(g558
g561
tp5733
g1
(g6
tRp5734
g4284
F1
ss(g609
tp5735
g1
(g6
tRp5736
g679
F1
ss(g3323
tp5737
g1
(g6
tRp5738
S''
F1
ss(g426
tp5739
g1
(g6
tRp5740
g427
F1
ss(g3309
g830
tp5741
g1
(g6
tRp5742
g831
F1
ss(g1637
g1640
tp5743
g1
(g6
tRp5744
g2320
F1
ss(g755
g758
tp5745
g1
(g6
tRp5746
g106
F1
ss(g2941
g1046
tp5747
g1
(g6
tRp5748
g1060
F1
ss(g2205
g793
tp5749
g1
(g6
tRp5750
g794
F1
ss(g3697
g1370
tp5751
g1
(g6
tRp5752
g3911
F1
ss(g1246
g1377
tp5753
g1
(g6
tRp5754
g1647
F1
ss(g353
tp5755
g1
(g6
tRp5756
g2328
F1
ss(g1961
tp5757
g1
(g6
tRp5758
g1950
F1
ss(g1230
tp5759
g1
(g6
tRp5760
g526
F1
ss(g1400
g1374
tp5761
g1
(g6
tRp5762
S''
F1
ss(g2713
tp5763
g1
(g6
tRp5764
S''
F0.5
sg254
F0.5
ss(g1468
tp5765
g1
(g6
tRp5766
g1984
F0.25
sg1613
F0.25
sg1008
F0.25
sg1304
F0.25
ss(g1649
tp5767
g1
(g6
tRp5768
S''
F1
ss(g16
g2221
tp5769
g1
(g6
tRp5770
Va
F1
ss(g2198
g1731
tp5771
g1
(g6
tRp5772
g1734
F1
ss(g1190
tp5773
g1
(g6
tRp5774
S''
F1
ss(g1242
tp5775
g1
(g6
tRp5776
g1243
F1
ss(g1487
tp5777
g1
(g6
tRp5778
g1488
F1
ss(g1900
g4437
tp5779
g1
(g6
tRp5780
g4440
F1
ss(g661
tp5781
g1
(g6
tRp5782
S''
F0.33333333333333331
sg664
F0.33333333333333331
sg1172
F0.33333333333333331
ss(g2228
tp5783
g1
(g6
tRp5784
g3903
F0.33333333333333331
sg1960
F0.33333333333333331
sg2515
F0.33333333333333331
ss(g496
tp5785
g1
(g6
tRp5786
g497
F1
ss(g1595
g1045
tp5787
g1
(g6
tRp5788
g1845
F1
ss(g852
tp5789
g1
(g6
tRp5790
g451
F0.18181818181818182
sg102
F0.18181818181818182
sg3198
F0.18181818181818182
sg1491
F0.27272727272727271
sg853
F0.18181818181818182
ss(g3407
g2547
tp5791
g1
(g6
tRp5792
g678
F1
ss(g392
tp5793
g1
(g6
tRp5794
g393
F1
ss(g2369
tp5795
g1
(g6
tRp5796
g2941
F1
ss(g3306
g1919
tp5797
g1
(g6
tRp5798
g1920
F1
ss(g1766
g326
tp5799
g1
(g6
tRp5800
g327
F1
ss(g375
tp5801
g1
(g6
tRp5802
g376
F1
ss(g853
tp5803
g1
(g6
tRp5804
g856
F1
ss(g38
g1100
tp5805
g1
(g6
tRp5806
g1275
F1
ss(g2370
tp5807
g1
(g6
tRp5808
g3102
F1
ss(g2154
tp5809
g1
(g6
tRp5810
g2644
F0.5
sg2356
F0.5
ss(g2511
tp5811
g1
(g6
tRp5812
S''
F1
ss(g1361
g4317
tp5813
g1
(g6
tRp5814
g2043
F1
ss(g227
tp5815
g1
(g6
tRp5816
g2017
F1
ss(g1374
tp5817
g1
(g6
tRp5818
S''
F1
ss(g4355
g4322
tp5819
g1
(g6
tRp5820
g4323
F1
ss(g3343
g3809
tp5821
g1
(g6
tRp5822
g2293
F1
ss(g3178
g2548
tp5823
g1
(g6
tRp5824
g3951
F1
ss(g743
g2299
tp5825
g1
(g6
tRp5826
g1375
F1
ss(g1906
g1909
tp5827
g1
(g6
tRp5828
g1652
F1
ss(g72
tp5829
g1
(g6
tRp5830
g82
F1
ss(g2633
Va
tp5831
g1
(g6
tRp5832
g2481
F1
ss(g135
g138
tp5833
g1
(g6
tRp5834
g1672
F1
ss(g2213
g1758
tp5835
g1
(g6
tRp5836
g1759
F1
ss(g1486
g3527
tp5837
g1
(g6
tRp5838
S''
F1
ss(g730
g621
tp5839
g1
(g6
tRp5840
g21
F0.5
sg624
F0.5
ss(g254
g210
tp5841
g1
(g6
tRp5842
g211
F1
ss(VI
g2123
tp5843
g1
(g6
tRp5844
g2124
F0.5
sg1542
F0.5
ss(g3543
g2227
tp5845
g1
(g6
tRp5846
g883
F0.5
sg884
F0.5
ss.